; $Id:  $
;; @file
;
; libstdc++-v3 exports.
;
; The ordinals assigned here will be considered to be fixed and
; unchangable between different libc patch levels. It's only
; permitted to add new export as the patch level increases.
;
; When starting a new minor or major version, we don't have to
; think about compatability and this file should then be
; regenerated by running emxexp on the static libstdc++ library.
;
; Anyone making changes to libstdc++, especially when taking in
; a new version, must make sure this file is updated!
;

  ;
  ; segment BSS32
  ;
  "__ZN16__Atomicity_lockILi0EE17_S_atomicity_lockE"                   @3000   ; magicseg='BSS32' len=48  weak  comm
  "__ZNSt7codecvtIcc11__mbstate_tE2idE"                                @3001   ; magicseg='BSS32' len=35  comm
  "__ZNSt5ctypeIcE2idE"                                                @3002   ; magicseg='BSS32' len=19  comm
  "__ZN9__gnu_cxx10facet_nameE"                                        @3003   ; magicseg='BSS32' len=27  comm
  "__ZN9__gnu_cxx13c_locale_implE"                                     @3004   ; magicseg='BSS32' len=30  comm
  "__ZN9__gnu_cxx8c_localeE"                                           @3005   ; magicseg='BSS32' len=24  comm
  "__ZN9__gnu_cxx20c_locale_impl_compatE"                              @3006   ; magicseg='BSS32' len=37  comm
  "__ZN9__gnu_cxx9facet_vecE"                                          @3007   ; magicseg='BSS32' len=25  comm
  "__ZN9__gnu_cxx15facet_cache_vecE"                                   @3008   ; magicseg='BSS32' len=32  comm
  "__ZN9__gnu_cxx7ctype_cE"                                            @3009   ; magicseg='BSS32' len=23  comm
  "__ZN9__gnu_cxx9collate_cE"                                          @3010   ; magicseg='BSS32' len=25  comm
  "__ZN9__gnu_cxx10numpunct_cE"                                        @3011   ; magicseg='BSS32' len=27  comm
  "__ZN9__gnu_cxx9num_get_cE"                                          @3012   ; magicseg='BSS32' len=25  comm
  "__ZN9__gnu_cxx9num_put_cE"                                          @3013   ; magicseg='BSS32' len=25  comm
  "__ZN9__gnu_cxx9codecvt_cE"                                          @3014   ; magicseg='BSS32' len=25  comm
  "__ZN9__gnu_cxx13moneypunct_tcE"                                     @3015   ; magicseg='BSS32' len=30  comm
  "__ZN9__gnu_cxx13moneypunct_fcE"                                     @3016   ; magicseg='BSS32' len=30  comm
  "__ZN9__gnu_cxx11money_get_cE"                                       @3017   ; magicseg='BSS32' len=28  comm
  "__ZN9__gnu_cxx11money_put_cE"                                       @3018   ; magicseg='BSS32' len=28  comm
  "__ZN9__gnu_cxx11timepunct_cE"                                       @3019   ; magicseg='BSS32' len=28  comm
  "__ZN9__gnu_cxx10time_get_cE"                                        @3020   ; magicseg='BSS32' len=27  comm
  "__ZN9__gnu_cxx10time_put_cE"                                        @3021   ; magicseg='BSS32' len=27  comm
  "__ZN9__gnu_cxx10messages_cE"                                        @3022   ; magicseg='BSS32' len=27  comm
  "__ZN9__gnu_cxx17locale_cache_np_cE"                                 @3023   ; magicseg='BSS32' len=34  comm
  "__ZN9__gnu_cxx8buf_coutE"                                           @3024   ; magicseg='BSS32' len=24  comm
  "__ZN9__gnu_cxx7buf_cinE"                                            @3025   ; magicseg='BSS32' len=23  comm
  "__ZN9__gnu_cxx8buf_cerrE"                                           @3026   ; magicseg='BSS32' len=24  comm
  "__ZN9__gnu_cxx13_GLIBCPP_onceE"                                     @3027   ; magicseg='BSS32' len=30  comm
  "__ZN9__gnu_cxx14_GLIBCPP_mutexE"                                    @3028   ; magicseg='BSS32' len=31  comm
  "__ZN9__gnu_cxx22_GLIBCPP_mutex_addressE"                            @3029   ; magicseg='BSS32' len=39  comm
  "__ZSt3cin"                                                          @3030   ; magicseg='BSS32' len=9  comm
  "__ZSt4cout"                                                         @3031   ; magicseg='BSS32' len=10  comm
  "__ZSt4cerr"                                                         @3032   ; magicseg='BSS32' len=10  comm
  "__ZSt4clog"                                                         @3033   ; magicseg='BSS32' len=10  comm
  "__ZNSt8ios_base4Init16_S_ios_base_initE"                            @3034   ; magicseg='BSS32' len=39  comm
  "__ZNSt6locale10_S_classicE"                                         @3035   ; magicseg='BSS32' len=26  comm
  "__ZNSt6locale9_S_globalE"                                           @3036   ; magicseg='BSS32' len=24  comm
  "__ZNSt6locale2id12_S_highwaterE"                                    @3037   ; magicseg='BSS32' len=31  comm
  "__ZNSt6locale5facet11_S_c_localeE"                                  @3038   ; magicseg='BSS32' len=33  comm
  "__ZNSt6locale5facet9_S_c_nameE"                                     @3039   ; magicseg='BSS32' len=30  comm
  "__ZNSt8numpunctIcE2idE"                                             @3040   ; magicseg='BSS32' len=22  weak  comm
  "__ZNSt7collateIcE2idE"                                              @3041   ; magicseg='BSS32' len=21  weak  comm
  "__ZNSt7num_putIcSt19ostreambuf_iteratorIcSt11char_traitsIcEEE2idE"                      @3042   ; magicseg='BSS32' len=65  weak  comm
  "__ZNSt7num_getIcSt19istreambuf_iteratorIcSt11char_traitsIcEEE2idE"                      @3043   ; magicseg='BSS32' len=65  weak  comm
  "__ZNSt10moneypunctIcLb1EE2idE"                                      @3044   ; magicseg='BSS32' len=29  weak  comm
  "__ZNSt10moneypunctIcLb0EE2idE"                                      @3045   ; magicseg='BSS32' len=29  weak  comm
  "__ZNSt9money_putIcSt19ostreambuf_iteratorIcSt11char_traitsIcEEE2idE"                    @3046   ; magicseg='BSS32' len=67  weak  comm
  "__ZNSt9money_getIcSt19istreambuf_iteratorIcSt11char_traitsIcEEE2idE"                    @3047   ; magicseg='BSS32' len=67  weak  comm
  "__ZNSt11__timepunctIcE2idE"                                         @3048   ; magicseg='BSS32' len=26  weak  comm
  "__ZNSt8time_putIcSt19ostreambuf_iteratorIcSt11char_traitsIcEEE2idE"                     @3049   ; magicseg='BSS32' len=66  weak  comm
  "__ZNSt8time_getIcSt19istreambuf_iteratorIcSt11char_traitsIcEEE2idE"                     @3050   ; magicseg='BSS32' len=66  weak  comm
  "__ZNSt8messagesIcE2idE"                                             @3051   ; magicseg='BSS32' len=22  weak  comm
  "__ZGVNSt10moneypunctIcLb0EE2idE"                                    @3052   ; magicseg='BSS32' len=31  weak  comm
  "__ZGVNSt10moneypunctIcLb1EE2idE"                                    @3053   ; magicseg='BSS32' len=31  weak  comm
  "__ZGVNSt9money_getIcSt19istreambuf_iteratorIcSt11char_traitsIcEEE2idE"                  @3054   ; magicseg='BSS32' len=69  weak  comm
  "__ZGVNSt9money_putIcSt19ostreambuf_iteratorIcSt11char_traitsIcEEE2idE"                  @3055   ; magicseg='BSS32' len=69  weak  comm
  "__ZGVNSt8numpunctIcE2idE"                                           @3056   ; magicseg='BSS32' len=24  weak  comm
  "__ZGVNSt7num_getIcSt19istreambuf_iteratorIcSt11char_traitsIcEEE2idE"                    @3057   ; magicseg='BSS32' len=67  weak  comm
  "__ZGVNSt7num_putIcSt19ostreambuf_iteratorIcSt11char_traitsIcEEE2idE"                    @3058   ; magicseg='BSS32' len=67  weak  comm
  "__ZGVNSt11__timepunctIcE2idE"                                       @3059   ; magicseg='BSS32' len=28  weak  comm
  "__ZGVNSt8time_putIcSt19ostreambuf_iteratorIcSt11char_traitsIcEEE2idE"                   @3060   ; magicseg='BSS32' len=68  weak  comm
  "__ZGVNSt8time_getIcSt19istreambuf_iteratorIcSt11char_traitsIcEEE2idE"                   @3061   ; magicseg='BSS32' len=68  weak  comm
  "__ZGVNSt8messagesIcE2idE"                                           @3062   ; magicseg='BSS32' len=24  weak  comm
  "__ZGVNSt7collateIcE2idE"                                            @3063   ; magicseg='BSS32' len=23  weak  comm
  "__ZNSt24__default_alloc_templateILb1ELi0EE22_S_node_allocator_lockE"                    @3064   ; magicseg='BSS32' len=67  weak  comm
  "__ZNSt24__default_alloc_templateILb1ELi0EE12_S_force_newE"          @3065   ; magicseg='BSS32' len=57  weak  comm
  "__ZNSt24__default_alloc_templateILb1ELi0EE12_S_free_listE"          @3066   ; magicseg='BSS32' len=57  weak  comm
  "__ZNSt24__default_alloc_templateILb1ELi0EE13_S_start_freeE"         @3067   ; magicseg='BSS32' len=58  weak  comm
  "__ZNSt24__default_alloc_templateILb1ELi0EE11_S_end_freeE"           @3068   ; magicseg='BSS32' len=56  weak  comm
  "__ZNSt24__default_alloc_templateILb1ELi0EE12_S_heap_sizeE"          @3069   ; magicseg='BSS32' len=57  weak  comm
  "__ZNSs20_S_empty_rep_storageE"                                      @3070   ; magicseg='BSS32' len=29  weak  comm
  "___new_handler"                                                     @3071   ; magicseg='BSS32' len=14  comm


  ;
  ; segment DATA32
  ;
  "__ZSt12_S_first_one"                                                @3150   ; magicseg='DATA32' len=19
  "__ZSt12_S_bit_count"                                                @3151   ; magicseg='DATA32' len=19
  "__ZNSt8ios_base4Init20_S_synced_with_stdioE"                        @3152   ; magicseg='DATA32' len=43
  "__ZNSt11__timepunctIcE12_S_timezonesE"                              @3153   ; magicseg='DATA32' len=37
  "__ZNSt10__num_base11_S_atoms_inE"                                   @3154   ; magicseg='DATA32' len=32
  "__ZNSt10__num_base12_S_atoms_outE"                                  @3155   ; magicseg='DATA32' len=33
  "__ZNSt6locale13_S_categoriesE"                                      @3156   ; magicseg='DATA32' len=29
  "__ZN10__cxxabiv119__terminate_handlerE"                             @3157   ; magicseg='DATA32' len=38
  "__ZN10__cxxabiv120__unexpected_handlerE"                            @3158   ; magicseg='DATA32' len=39



  ;
  ; segment TEXT32
  ;
  "__ZNKSt12_Base_bitsetILj1EE16_M_do_find_firstEj"                    @3200   ; magicseg='TEXT32' len=47
  "__ZNKSt12_Base_bitsetILj1EE15_M_do_find_nextEjj"                    @3201   ; magicseg='TEXT32' len=47
  "__ZNSt7codecvtIcc11__mbstate_tEC2Ej"                                @3202   ; magicseg='TEXT32' len=35
  "__ZTVSt7codecvtIcc11__mbstate_tE"                                   @3203   ; magicseg='TEXT32' len=32
  "__ZNSt7codecvtIcc11__mbstate_tEC1Ej"                                @3204   ; magicseg='TEXT32' len=35
  "__ZNSt7codecvtIcc11__mbstate_tED2Ev"                                @3205   ; magicseg='TEXT32' len=35
  "__ZTVSt23__codecvt_abstract_baseIcc11__mbstate_tE"                  @3206   ; magicseg='TEXT32' len=49
  "__ZNSt7codecvtIcc11__mbstate_tED1Ev"                                @3207   ; magicseg='TEXT32' len=35
  "__ZNSt7codecvtIcc11__mbstate_tED0Ev"                                @3208   ; magicseg='TEXT32' len=35
  "__ZNKSt7codecvtIcc11__mbstate_tE6do_outERS0_PKcS4_RS4_PcS6_RS6_"    @3209   ; magicseg='TEXT32' len=63
  "__ZNKSt7codecvtIcc11__mbstate_tE10do_unshiftERS0_PcS3_RS3_"         @3210   ; magicseg='TEXT32' len=58
  "__ZNKSt7codecvtIcc11__mbstate_tE5do_inERS0_PKcS4_RS4_PcS6_RS6_"     @3211   ; magicseg='TEXT32' len=62
  "__ZNKSt7codecvtIcc11__mbstate_tE11do_encodingEv"                    @3212   ; magicseg='TEXT32' len=47
  "__ZNKSt7codecvtIcc11__mbstate_tE16do_always_noconvEv"               @3213   ; magicseg='TEXT32' len=52
  "__ZNKSt7codecvtIcc11__mbstate_tE9do_lengthERKS0_PKcS5_j"            @3214   ; magicseg='TEXT32' len=55
  "__ZNKSt7codecvtIcc11__mbstate_tE13do_max_lengthEv"                  @3215   ; magicseg='TEXT32' len=49
  "__ZTISt7codecvtIcc11__mbstate_tE"                                   @3216   ; magicseg='TEXT32' len=32
  "__ZTISt23__codecvt_abstract_baseIcc11__mbstate_tE"                  @3217   ; magicseg='TEXT32' len=49
  "__ZNSt23__codecvt_abstract_baseIcc11__mbstate_tED1Ev"               @3218   ; magicseg='TEXT32' len=52
  "__ZNSt23__codecvt_abstract_baseIcc11__mbstate_tED0Ev"               @3219   ; magicseg='TEXT32' len=52
  "__ZTSSt23__codecvt_abstract_baseIcc11__mbstate_tE"                  @3220   ; magicseg='TEXT32' len=49
  "__ZTINSt6locale5facetE"                                             @3221   ; magicseg='TEXT32' len=22
  "__ZTISt12codecvt_base"                                              @3222   ; magicseg='TEXT32' len=21
  "__ZTSSt7codecvtIcc11__mbstate_tE"                                   @3223   ; magicseg='TEXT32' len=32
  "__ZTSNSt6locale5facetE"                                             @3224   ; magicseg='TEXT32' len=22
  "__ZTSSt12codecvt_base"                                              @3225   ; magicseg='TEXT32' len=21
  "__ZStrsIfcSt11char_traitsIcEERSt13basic_istreamIT0_T1_ES6_RSt7complexIT_E"              @3226   ; magicseg='TEXT32' len=73
  "__ZStlsIfcSt11char_traitsIcEERSt13basic_ostreamIT0_T1_ES6_RKSt7complexIT_E"             @3227   ; magicseg='TEXT32' len=74
  "__ZTTSt19basic_ostringstreamIcSt11char_traitsIcESaIcEE"             @3228   ; magicseg='TEXT32' len=54
  "__ZTVSt19basic_ostringstreamIcSt11char_traitsIcESaIcEE"             @3229   ; magicseg='TEXT32' len=54
  "__ZTVSt15basic_stringbufIcSt11char_traitsIcESaIcEE"                 @3230   ; magicseg='TEXT32' len=50
  "__ZNKSt15basic_stringbufIcSt11char_traitsIcESaIcEE3strEv"           @3231   ; magicseg='TEXT32' len=56
  "__ZNSt15basic_stringbufIcSt11char_traitsIcESaIcEED1Ev"              @3232   ; magicseg='TEXT32' len=53
  "__ZStrsIdcSt11char_traitsIcEERSt13basic_istreamIT0_T1_ES6_RSt7complexIT_E"              @3233   ; magicseg='TEXT32' len=73
  "__ZStlsIdcSt11char_traitsIcEERSt13basic_ostreamIT0_T1_ES6_RKSt7complexIT_E"             @3234   ; magicseg='TEXT32' len=74
  "__ZNSt15basic_stringbufIcSt11char_traitsIcESaIcEE17_M_stringbuf_initESt13_Ios_Openmode"                               @3235   ; magicseg='TEXT32' len=86
  "__ZStrsIecSt11char_traitsIcEERSt13basic_istreamIT0_T1_ES6_RSt7complexIT_E"              @3236   ; magicseg='TEXT32' len=73
  "__ZStlsIecSt11char_traitsIcEERSt13basic_ostreamIT0_T1_ES6_RKSt7complexIT_E"             @3237   ; magicseg='TEXT32' len=74
  "__ZTISt19basic_ostringstreamIcSt11char_traitsIcESaIcEE"             @3238   ; magicseg='TEXT32' len=54
  "__ZNSt19basic_ostringstreamIcSt11char_traitsIcESaIcEED1Ev"          @3239   ; magicseg='TEXT32' len=57
  "__ZNSt19basic_ostringstreamIcSt11char_traitsIcESaIcEED0Ev"          @3240   ; magicseg='TEXT32' len=57
  "__ZTv0_n12_NSt19basic_ostringstreamIcSt11char_traitsIcESaIcEED1Ev"                      @3241   ; magicseg='TEXT32' len=65
  "__ZTv0_n12_NSt19basic_ostringstreamIcSt11char_traitsIcESaIcEED0Ev"                      @3242   ; magicseg='TEXT32' len=65
  "__ZTCSt19basic_ostringstreamIcSt11char_traitsIcESaIcEE0_So"         @3243   ; magicseg='TEXT32' len=58
  "__ZTISt15basic_stringbufIcSt11char_traitsIcESaIcEE"                 @3244   ; magicseg='TEXT32' len=50
  "__ZNSt15basic_stringbufIcSt11char_traitsIcESaIcEED0Ev"              @3245   ; magicseg='TEXT32' len=53
  "__ZNSt15basic_stringbufIcSt11char_traitsIcESaIcEE6setbufEPci"       @3246   ; magicseg='TEXT32' len=60
  "__ZNSt15basic_stringbufIcSt11char_traitsIcESaIcEE9underflowEv"      @3247   ; magicseg='TEXT32' len=61
  "__ZNSt15basic_stringbufIcSt11char_traitsIcESaIcEE14_M_really_syncEjj"                   @3248   ; magicseg='TEXT32' len=68
  "__ZTSSt15basic_stringbufIcSt11char_traitsIcESaIcEE"                 @3249   ; magicseg='TEXT32' len=50
  "__ZTSSt19basic_ostringstreamIcSt11char_traitsIcESaIcEE"             @3250   ; magicseg='TEXT32' len=54
  "__ZN9__gnu_cxx19__function_requiresINS_19_ConvertibleConceptIjjEEEEvv"                  @3251   ; magicseg='TEXT32' len=69
  "__ZN9__gnu_cxx19__function_requiresINS_21_InputIteratorConceptIPcEEEEvv"                @3252   ; magicseg='TEXT32' len=71
  "__ZN9__gnu_cxx19__function_requiresINS_21_InputIteratorConceptIPKcEEEEvv"               @3253   ; magicseg='TEXT32' len=72
  "__ZN9__gnu_cxx19__function_requiresINS_26_LessThanComparableConceptIPcEEEEvv"           @3254   ; magicseg='TEXT32' len=76
  "__ZN9__gnu_cxx19__function_requiresINS_26_LessThanComparableConceptIiEEEEvv"            @3255   ; magicseg='TEXT32' len=75
  "__ZN9__gnu_cxx19__function_requiresINS_26_LessThanComparableConceptIlEEEEvv"            @3256   ; magicseg='TEXT32' len=75
  "__ZN9__gnu_cxx19__function_requiresINS_26_LessThanComparableConceptIxEEEEvv"            @3257   ; magicseg='TEXT32' len=75
  "__ZN9__gnu_cxx19__function_requiresINS_22_OutputIteratorConceptISt19ostreambuf_iteratorIcSt11char_traitsIcEEcEEEEvv"                                       @3258   ; magicseg='TEXT32' len=115
  "__ZN9__gnu_cxx19__function_requiresINS_28_RandomAccessIteratorConceptIPcEEEEvv"         @3259   ; magicseg='TEXT32' len=78
  "__ZN9__gnu_cxx19__function_requiresINS_28_RandomAccessIteratorConceptIPKcEEEEvv"        @3260   ; magicseg='TEXT32' len=79
  "__ZN9__gnu_cxx19__function_requiresINS_28_RandomAccessIteratorConceptINS_17__normal_iteratorIPKcSsEEEEEEvv"           @3261   ; magicseg='TEXT32' len=106
  "__ZN9__gnu_cxx19__function_requiresINS_28_RandomAccessIteratorConceptINS_17__normal_iteratorIPcSsEEEEEEvv"            @3262   ; magicseg='TEXT32' len=105
  "__ZN9__gnu_cxx19__function_requiresINS_26_LessThanComparableConceptIjEEEEvv"            @3263   ; magicseg='TEXT32' len=75
  "__ZN9__gnu_cxx26__aux_require_boolean_exprIbEEvRKT_"                @3264   ; magicseg='TEXT32' len=51
  "__ZNSt15basic_streambufIcSt11char_traitsIcEE13_S_pback_sizeE"       @3265   ; magicseg='TEXT32' len=60
  "__ZNSt5ctypeIcE13classic_tableEv"                                   @3266   ; magicseg='TEXT32' len=32
  "__ZNSt5ctypeIcEC2EPiPKtbj"                                          @3267   ; magicseg='TEXT32' len=25
  "__ZTVSt5ctypeIcE"                                                   @3268   ; magicseg='TEXT32' len=16
  "__ZNSt12__ctype_data10InitializeEv"                                 @3269   ; magicseg='TEXT32' len=34
  "__ZTVSt21__ctype_abstract_baseIcE"                                  @3270   ; magicseg='TEXT32' len=33
  "__ZNSt5ctypeIcEC1EPiPKtbj"                                          @3271   ; magicseg='TEXT32' len=25
  "__ZNSt5ctypeIcEC2EPKtbj"                                            @3272   ; magicseg='TEXT32' len=23
  "__ZNSt5ctypeIcEC1EPKtbj"                                            @3273   ; magicseg='TEXT32' len=23
  "__ZNKSt5ctypeIcE10do_toupperEc"                                     @3274   ; magicseg='TEXT32' len=30
  "__ZNKSt5ctypeIcE10do_toupperEPcPKc"                                 @3275   ; magicseg='TEXT32' len=34
  "__ZNKSt5ctypeIcE10do_tolowerEc"                                     @3276   ; magicseg='TEXT32' len=30
  "__ZNKSt5ctypeIcE10do_tolowerEPcPKc"                                 @3277   ; magicseg='TEXT32' len=34
  "__ZSt9use_facetISt5ctypeIcEERKT_RKSt6locale"                        @3278   ; magicseg='TEXT32' len=43
  "__ZNSt10ctype_base5spaceE"                                          @3279   ; magicseg='TEXT32' len=25
  "__ZNSt10ctype_base5printE"                                          @3280   ; magicseg='TEXT32' len=25
  "__ZNSt10ctype_base5cntrlE"                                          @3281   ; magicseg='TEXT32' len=25
  "__ZNSt10ctype_base5upperE"                                          @3282   ; magicseg='TEXT32' len=25
  "__ZNSt10ctype_base5lowerE"                                          @3283   ; magicseg='TEXT32' len=25
  "__ZNSt10ctype_base5alphaE"                                          @3284   ; magicseg='TEXT32' len=25
  "__ZNSt10ctype_base5digitE"                                          @3285   ; magicseg='TEXT32' len=25
  "__ZNSt10ctype_base5punctE"                                          @3286   ; magicseg='TEXT32' len=25
  "__ZNSt10ctype_base6xdigitE"                                         @3287   ; magicseg='TEXT32' len=26
  "__ZNSt10ctype_base5alnumE"                                          @3288   ; magicseg='TEXT32' len=25
  "__ZNSt10ctype_base5graphE"                                          @3289   ; magicseg='TEXT32' len=25
  "__ZNSt5ctypeIcE10table_sizeE"                                       @3290   ; magicseg='TEXT32' len=28
  "__ZNSt5ctypeIcED2Ev"                                                @3291   ; magicseg='TEXT32' len=19
  "__ZNSt5ctypeIcED1Ev"                                                @3292   ; magicseg='TEXT32' len=19
  "__ZNSt5ctypeIcED0Ev"                                                @3293   ; magicseg='TEXT32' len=19
  "__ZNKSt5ctypeIcE5do_isEtc"                                          @3294   ; magicseg='TEXT32' len=25
  "__ZNKSt5ctypeIcE5do_isEPKcS2_Pt"                                    @3295   ; magicseg='TEXT32' len=31
  "__ZNKSt5ctypeIcE10do_scan_isEtPKcS2_"                               @3296   ; magicseg='TEXT32' len=36
  "__ZNKSt5ctypeIcE11do_scan_notEtPKcS2_"                              @3297   ; magicseg='TEXT32' len=37
  "__ZNKSt5ctypeIcE8do_widenEc"                                        @3298   ; magicseg='TEXT32' len=27
  "__ZNKSt5ctypeIcE8do_widenEPKcS2_Pc"                                 @3299   ; magicseg='TEXT32' len=34
  "__ZNKSt5ctypeIcE9do_narrowEcc"                                      @3300   ; magicseg='TEXT32' len=29
  "__ZNKSt5ctypeIcE9do_narrowEPKcS2_cPc"                               @3301   ; magicseg='TEXT32' len=36
  "__ZTISt5ctypeIcE"                                                   @3302   ; magicseg='TEXT32' len=16
  "__ZTISt21__ctype_abstract_baseIcE"                                  @3303   ; magicseg='TEXT32' len=33
  "__ZNSt21__ctype_abstract_baseIcED1Ev"                               @3304   ; magicseg='TEXT32' len=36
  "__ZNSt21__ctype_abstract_baseIcED0Ev"                               @3305   ; magicseg='TEXT32' len=36
  "__ZTSSt21__ctype_abstract_baseIcE"                                  @3306   ; magicseg='TEXT32' len=33
  "__ZTISt10ctype_base"                                                @3307   ; magicseg='TEXT32' len=19
  "__ZTSSt5ctypeIcE"                                                   @3308   ; magicseg='TEXT32' len=16
  "__ZTSSt10ctype_base"                                                @3309   ; magicseg='TEXT32' len=19
  "__ZN9__gnu_cxx4ropeIcSaIcEE8_S_fetchEPNS_13_Rope_RopeRepIcS1_EEj"   @3310   ; magicseg='TEXT32' len=64
  "__ZN9__gnu_cxx13stdio_filebufIcSt11char_traitsIcEEC2EiSt13_Ios_Openmodebj"              @3311   ; magicseg='TEXT32' len=73
  "__ZTVN9__gnu_cxx13stdio_filebufIcSt11char_traitsIcEEE"              @3312   ; magicseg='TEXT32' len=53
  "__ZN9__gnu_cxx13stdio_filebufIcSt11char_traitsIcEEC1EiSt13_Ios_Openmodebj"              @3313   ; magicseg='TEXT32' len=73
  "__ZN9__gnu_cxx13stdio_filebufIcSt11char_traitsIcEEC2EP7__sFILESt13_Ios_Openmodej"       @3314   ; magicseg='TEXT32' len=80
  "__ZN9__gnu_cxx13stdio_filebufIcSt11char_traitsIcEEC1EP7__sFILESt13_Ios_Openmodej"       @3315   ; magicseg='TEXT32' len=80
  "__ZN9__gnu_cxx13stdio_filebufIcSt11char_traitsIcEED2Ev"             @3316   ; magicseg='TEXT32' len=54
  "__ZN9__gnu_cxx13stdio_filebufIcSt11char_traitsIcEED1Ev"             @3317   ; magicseg='TEXT32' len=54
  "__ZN9__gnu_cxx13stdio_filebufIcSt11char_traitsIcEED0Ev"             @3318   ; magicseg='TEXT32' len=54
  "__ZN9__gnu_cxx13stdio_filebufIcSt11char_traitsIcEE2fdEv"            @3319   ; magicseg='TEXT32' len=55
  "__ZTIN9__gnu_cxx13stdio_filebufIcSt11char_traitsIcEEE"              @3320   ; magicseg='TEXT32' len=53
  "__ZTSN9__gnu_cxx13stdio_filebufIcSt11char_traitsIcEEE"              @3321   ; magicseg='TEXT32' len=53
  "__ZN9__gnu_cxx4ropeIcSaIcEE10_S_min_lenE"                           @3322   ; magicseg='TEXT32' len=40
  "__ZNSt13basic_filebufIcSt11char_traitsIcEE19_M_underflow_commonEb"                      @3323   ; magicseg='TEXT32' len=65
  "__ZNSt13basic_filebufIcSt11char_traitsIcEEC2Ev"                     @3324   ; magicseg='TEXT32' len=46
  "__ZTVSt13basic_filebufIcSt11char_traitsIcEE"                        @3325   ; magicseg='TEXT32' len=43
  "__ZNSt13basic_filebufIcSt11char_traitsIcEEC1Ev"                     @3326   ; magicseg='TEXT32' len=46
  "__ZNSt13basic_filebufIcSt11char_traitsIcEED2Ev"                     @3327   ; magicseg='TEXT32' len=46
  "__ZNSt13basic_filebufIcSt11char_traitsIcEE5closeEv"                 @3328   ; magicseg='TEXT32' len=50
  "__ZNSt13basic_filebufIcSt11char_traitsIcEED1Ev"                     @3329   ; magicseg='TEXT32' len=46
  "__ZNSt13basic_filebufIcSt11char_traitsIcEED0Ev"                     @3330   ; magicseg='TEXT32' len=46
  "__ZNKSt13basic_filebufIcSt11char_traitsIcEE7is_openEv"              @3331   ; magicseg='TEXT32' len=53
  "__ZNSt13basic_filebufIcSt11char_traitsIcEE20_M_set_indeterminateEv"                     @3332   ; magicseg='TEXT32' len=66
  "__ZNSt13basic_filebufIcSt11char_traitsIcEE4openEPKcSt13_Ios_Openmode"                   @3333   ; magicseg='TEXT32' len=68
  "__ZNSt13basic_filebufIcSt11char_traitsIcEE27_M_allocate_internal_bufferEv"              @3334   ; magicseg='TEXT32' len=73
  "__ZNSt13basic_filebufIcSt11char_traitsIcEE26_M_destroy_internal_bufferEv"               @3335   ; magicseg='TEXT32' len=72
  "__ZNSt13basic_filebufIcSt11char_traitsIcEE18_M_really_overflowEi"   @3336   ; magicseg='TEXT32' len=64
  "__ZNSt13basic_filebufIcSt11char_traitsIcEE9showmanycEv"             @3337   ; magicseg='TEXT32' len=54
  "__ZNSt13basic_filebufIcSt11char_traitsIcEE9underflowEv"             @3338   ; magicseg='TEXT32' len=54
  "__ZNSt13basic_filebufIcSt11char_traitsIcEE5uflowEv"                 @3339   ; magicseg='TEXT32' len=50
  "__ZNSt13basic_filebufIcSt11char_traitsIcEE9pbackfailEi"             @3340   ; magicseg='TEXT32' len=54
  "__ZNSt13basic_filebufIcSt11char_traitsIcEE8overflowEi"              @3341   ; magicseg='TEXT32' len=53
  "__ZNSt13basic_filebufIcSt11char_traitsIcEE22_M_convert_to_externalEPciRiS4_"            @3342   ; magicseg='TEXT32' len=75
  "__ZNSt13basic_filebufIcSt11char_traitsIcEE6setbufEPci"              @3343   ; magicseg='TEXT32' len=53
  "__ZNSt13basic_filebufIcSt11char_traitsIcEE7seekoffElSt12_Ios_SeekdirSt13_Ios_Openmode"                                @3344   ; magicseg='TEXT32' len=85
  "__ZNSt13basic_filebufIcSt11char_traitsIcEE17_M_output_unshiftEv"    @3345   ; magicseg='TEXT32' len=63
  "__ZNSt13basic_filebufIcSt11char_traitsIcEE7seekposESt4fposI11__mbstate_tESt13_Ios_Openmode"                           @3346   ; magicseg='TEXT32' len=90
  "__ZNSt13basic_filebufIcSt11char_traitsIcEE4syncEv"                  @3347   ; magicseg='TEXT32' len=49
  "__ZNSt13basic_filebufIcSt11char_traitsIcEE5imbueERKSt6locale"       @3348   ; magicseg='TEXT32' len=60
  "__ZNSt13basic_filebufIcSt11char_traitsIcEE6xsgetnEPci"              @3349   ; magicseg='TEXT32' len=53
  "__ZNSt13basic_filebufIcSt11char_traitsIcEE6xsputnEPKci"             @3350   ; magicseg='TEXT32' len=54
  "__ZNSt13basic_filebufIcSt11char_traitsIcEE18_M_set_determinateEl"   @3351   ; magicseg='TEXT32' len=64
  "__ZNSt13basic_filebufIcSt11char_traitsIcEE19_M_is_indeterminateEv"                      @3352   ; magicseg='TEXT32' len=65
  "__ZNSt14basic_ifstreamIcSt11char_traitsIcEEC2Ev"                    @3353   ; magicseg='TEXT32' len=47
  "__ZNSt14basic_ifstreamIcSt11char_traitsIcEEC1Ev"                    @3354   ; magicseg='TEXT32' len=47
  "__ZTTSt14basic_ifstreamIcSt11char_traitsIcEE"                       @3355   ; magicseg='TEXT32' len=44
  "__ZTVSt14basic_ifstreamIcSt11char_traitsIcEE"                       @3356   ; magicseg='TEXT32' len=44
  "__ZNSt14basic_ifstreamIcSt11char_traitsIcEE4openEPKcSt13_Ios_Openmode"                  @3357   ; magicseg='TEXT32' len=69
  "__ZNSt14basic_ifstreamIcSt11char_traitsIcEEC2EPKcSt13_Ios_Openmode"                     @3358   ; magicseg='TEXT32' len=66
  "__ZNSt14basic_ifstreamIcSt11char_traitsIcEEC1EPKcSt13_Ios_Openmode"                     @3359   ; magicseg='TEXT32' len=66
  "__ZNSt14basic_ifstreamIcSt11char_traitsIcEED2Ev"                    @3360   ; magicseg='TEXT32' len=47
  "__ZNSt14basic_ifstreamIcSt11char_traitsIcEED1Ev"                    @3361   ; magicseg='TEXT32' len=47
  "__ZTv0_n12_NSt14basic_ifstreamIcSt11char_traitsIcEED1Ev"            @3362   ; magicseg='TEXT32' len=55
  "__ZNSt14basic_ifstreamIcSt11char_traitsIcEED0Ev"                    @3363   ; magicseg='TEXT32' len=47
  "__ZTv0_n12_NSt14basic_ifstreamIcSt11char_traitsIcEED0Ev"            @3364   ; magicseg='TEXT32' len=55
  "__ZNKSt14basic_ifstreamIcSt11char_traitsIcEE5rdbufEv"               @3365   ; magicseg='TEXT32' len=52
  "__ZNSt14basic_ifstreamIcSt11char_traitsIcEE7is_openEv"              @3366   ; magicseg='TEXT32' len=53
  "__ZNSt14basic_ifstreamIcSt11char_traitsIcEE5closeEv"                @3367   ; magicseg='TEXT32' len=51
  "__ZNSt14basic_ofstreamIcSt11char_traitsIcEEC2Ev"                    @3368   ; magicseg='TEXT32' len=47
  "__ZNSt14basic_ofstreamIcSt11char_traitsIcEEC1Ev"                    @3369   ; magicseg='TEXT32' len=47
  "__ZTTSt14basic_ofstreamIcSt11char_traitsIcEE"                       @3370   ; magicseg='TEXT32' len=44
  "__ZTVSt14basic_ofstreamIcSt11char_traitsIcEE"                       @3371   ; magicseg='TEXT32' len=44
  "__ZNSt14basic_ofstreamIcSt11char_traitsIcEE4openEPKcSt13_Ios_Openmode"                  @3372   ; magicseg='TEXT32' len=69
  "__ZNSt14basic_ofstreamIcSt11char_traitsIcEEC2EPKcSt13_Ios_Openmode"                     @3373   ; magicseg='TEXT32' len=66
  "__ZNSt14basic_ofstreamIcSt11char_traitsIcEEC1EPKcSt13_Ios_Openmode"                     @3374   ; magicseg='TEXT32' len=66
  "__ZNSt14basic_ofstreamIcSt11char_traitsIcEED2Ev"                    @3375   ; magicseg='TEXT32' len=47
  "__ZNSt14basic_ofstreamIcSt11char_traitsIcEED1Ev"                    @3376   ; magicseg='TEXT32' len=47
  "__ZTv0_n12_NSt14basic_ofstreamIcSt11char_traitsIcEED1Ev"            @3377   ; magicseg='TEXT32' len=55
  "__ZNSt14basic_ofstreamIcSt11char_traitsIcEED0Ev"                    @3378   ; magicseg='TEXT32' len=47
  "__ZTv0_n12_NSt14basic_ofstreamIcSt11char_traitsIcEED0Ev"            @3379   ; magicseg='TEXT32' len=55
  "__ZNKSt14basic_ofstreamIcSt11char_traitsIcEE5rdbufEv"               @3380   ; magicseg='TEXT32' len=52
  "__ZNSt14basic_ofstreamIcSt11char_traitsIcEE7is_openEv"              @3381   ; magicseg='TEXT32' len=53
  "__ZNSt14basic_ofstreamIcSt11char_traitsIcEE5closeEv"                @3382   ; magicseg='TEXT32' len=51
  "__ZNSt13basic_fstreamIcSt11char_traitsIcEEC2Ev"                     @3383   ; magicseg='TEXT32' len=46
  "__ZNSt13basic_fstreamIcSt11char_traitsIcEEC1Ev"                     @3384   ; magicseg='TEXT32' len=46
  "__ZTTSt13basic_fstreamIcSt11char_traitsIcEE"                        @3385   ; magicseg='TEXT32' len=43
  "__ZTVSt13basic_fstreamIcSt11char_traitsIcEE"                        @3386   ; magicseg='TEXT32' len=43
  "__ZNSt13basic_fstreamIcSt11char_traitsIcEE4openEPKcSt13_Ios_Openmode"                   @3387   ; magicseg='TEXT32' len=68
  "__ZNSt13basic_fstreamIcSt11char_traitsIcEEC2EPKcSt13_Ios_Openmode"                      @3388   ; magicseg='TEXT32' len=65
  "__ZNSt13basic_fstreamIcSt11char_traitsIcEEC1EPKcSt13_Ios_Openmode"                      @3389   ; magicseg='TEXT32' len=65
  "__ZNSt13basic_fstreamIcSt11char_traitsIcEED2Ev"                     @3390   ; magicseg='TEXT32' len=46
  "__ZNSt13basic_fstreamIcSt11char_traitsIcEED1Ev"                     @3391   ; magicseg='TEXT32' len=46
  "__ZTv0_n12_NSt13basic_fstreamIcSt11char_traitsIcEED1Ev"             @3392   ; magicseg='TEXT32' len=54
  "__ZThn8_NSt13basic_fstreamIcSt11char_traitsIcEED1Ev"                @3393   ; magicseg='TEXT32' len=51
  "__ZNSt13basic_fstreamIcSt11char_traitsIcEED0Ev"                     @3394   ; magicseg='TEXT32' len=46
  "__ZTv0_n12_NSt13basic_fstreamIcSt11char_traitsIcEED0Ev"             @3395   ; magicseg='TEXT32' len=54
  "__ZThn8_NSt13basic_fstreamIcSt11char_traitsIcEED0Ev"                @3396   ; magicseg='TEXT32' len=51
  "__ZNKSt13basic_fstreamIcSt11char_traitsIcEE5rdbufEv"                @3397   ; magicseg='TEXT32' len=51
  "__ZNSt13basic_fstreamIcSt11char_traitsIcEE7is_openEv"               @3398   ; magicseg='TEXT32' len=52
  "__ZNSt13basic_fstreamIcSt11char_traitsIcEE5closeEv"                 @3399   ; magicseg='TEXT32' len=50
  "__ZTISt13basic_fstreamIcSt11char_traitsIcEE"                        @3400   ; magicseg='TEXT32' len=43
  "__ZTCSt13basic_fstreamIcSt11char_traitsIcEE0_Sd"                    @3401   ; magicseg='TEXT32' len=47
  "__ZTCSt13basic_fstreamIcSt11char_traitsIcEE0_Si"                    @3402   ; magicseg='TEXT32' len=47
  "__ZTCSt13basic_fstreamIcSt11char_traitsIcEE8_So"                    @3403   ; magicseg='TEXT32' len=47
  "__ZTISd"                                                            @3404   ; magicseg='TEXT32' len=7
  "__ZNSdD1Ev"                                                         @3405   ; magicseg='TEXT32' len=10
  "__ZNSdD0Ev"                                                         @3406   ; magicseg='TEXT32' len=10
  "__ZThn8_NSdD1Ev"                                                    @3407   ; magicseg='TEXT32' len=15
  "__ZThn8_NSdD0Ev"                                                    @3408   ; magicseg='TEXT32' len=15
  "__ZTv0_n12_NSdD1Ev"                                                 @3409   ; magicseg='TEXT32' len=18
  "__ZTv0_n12_NSdD0Ev"                                                 @3410   ; magicseg='TEXT32' len=18
  "__ZTISt14basic_ofstreamIcSt11char_traitsIcEE"                       @3411   ; magicseg='TEXT32' len=44
  "__ZTCSt14basic_ofstreamIcSt11char_traitsIcEE0_So"                   @3412   ; magicseg='TEXT32' len=48
  "__ZTISt14basic_ifstreamIcSt11char_traitsIcEE"                       @3413   ; magicseg='TEXT32' len=44
  "__ZTCSt14basic_ifstreamIcSt11char_traitsIcEE0_Si"                   @3414   ; magicseg='TEXT32' len=48
  "__ZTISt13basic_filebufIcSt11char_traitsIcEE"                        @3415   ; magicseg='TEXT32' len=43
  "__ZTVSd"                                                            @3416   ; magicseg='TEXT32' len=7
  "__ZTTSd"                                                            @3417   ; magicseg='TEXT32' len=7
  "__ZTSSt13basic_filebufIcSt11char_traitsIcEE"                        @3418   ; magicseg='TEXT32' len=43
  "__ZTSSt14basic_ifstreamIcSt11char_traitsIcEE"                       @3419   ; magicseg='TEXT32' len=44
  "__ZTSSt14basic_ofstreamIcSt11char_traitsIcEE"                       @3420   ; magicseg='TEXT32' len=44
  "__ZTSSd"                                                            @3421   ; magicseg='TEXT32' len=7
  "__ZTSSt13basic_fstreamIcSt11char_traitsIcEE"                        @3422   ; magicseg='TEXT32' len=43
  "__ZTCSd0_Si"                                                        @3423   ; magicseg='TEXT32' len=11
  "__ZTCSd8_So"                                                        @3424   ; magicseg='TEXT32' len=11
  "__ZSt21__throw_bad_exceptionv"                                      @3425   ; magicseg='TEXT32' len=29
  "__ZTISt13bad_exception"                                             @3426   ; magicseg='TEXT32' len=22
  "__ZSt17__throw_bad_allocv"                                          @3427   ; magicseg='TEXT32' len=25
  "__ZTISt9bad_alloc"                                                  @3428   ; magicseg='TEXT32' len=17
  "__ZSt16__throw_bad_castv"                                           @3429   ; magicseg='TEXT32' len=24
  "__ZTISt8bad_cast"                                                   @3430   ; magicseg='TEXT32' len=16
  "__ZSt18__throw_bad_typeidv"                                         @3431   ; magicseg='TEXT32' len=26
  "__ZTISt10bad_typeid"                                                @3432   ; magicseg='TEXT32' len=19
  "__ZSt19__throw_logic_errorPKc"                                      @3433   ; magicseg='TEXT32' len=29
  "__ZTISt11logic_error"                                               @3434   ; magicseg='TEXT32' len=20
  "__ZSt20__throw_domain_errorPKc"                                     @3435   ; magicseg='TEXT32' len=30
  "__ZNSt12domain_errorD1Ev"                                           @3436   ; magicseg='TEXT32' len=24
  "__ZTISt12domain_error"                                              @3437   ; magicseg='TEXT32' len=21
  "__ZSt24__throw_invalid_argumentPKc"                                 @3438   ; magicseg='TEXT32' len=34
  "__ZNSt16invalid_argumentD1Ev"                                       @3439   ; magicseg='TEXT32' len=28
  "__ZTISt16invalid_argument"                                          @3440   ; magicseg='TEXT32' len=25
  "__ZSt20__throw_length_errorPKc"                                     @3441   ; magicseg='TEXT32' len=30
  "__ZNSt12length_errorD1Ev"                                           @3442   ; magicseg='TEXT32' len=24
  "__ZTISt12length_error"                                              @3443   ; magicseg='TEXT32' len=21
  "__ZSt20__throw_out_of_rangePKc"                                     @3444   ; magicseg='TEXT32' len=30
  "__ZNSt12out_of_rangeD1Ev"                                           @3445   ; magicseg='TEXT32' len=24
  "__ZTISt12out_of_range"                                              @3446   ; magicseg='TEXT32' len=21
  "__ZSt21__throw_runtime_errorPKc"                                    @3447   ; magicseg='TEXT32' len=31
  "__ZTISt13runtime_error"                                             @3448   ; magicseg='TEXT32' len=22
  "__ZSt19__throw_range_errorPKc"                                      @3449   ; magicseg='TEXT32' len=29
  "__ZNSt11range_errorD1Ev"                                            @3450   ; magicseg='TEXT32' len=23
  "__ZTISt11range_error"                                               @3451   ; magicseg='TEXT32' len=20
  "__ZSt22__throw_overflow_errorPKc"                                   @3452   ; magicseg='TEXT32' len=32
  "__ZNSt14overflow_errorD1Ev"                                         @3453   ; magicseg='TEXT32' len=26
  "__ZTISt14overflow_error"                                            @3454   ; magicseg='TEXT32' len=23
  "__ZSt23__throw_underflow_errorPKc"                                  @3455   ; magicseg='TEXT32' len=33
  "__ZNSt15underflow_errorD1Ev"                                        @3456   ; magicseg='TEXT32' len=27
  "__ZTISt15underflow_error"                                           @3457   ; magicseg='TEXT32' len=24
  "__ZSt19__throw_ios_failurePKc"                                      @3458   ; magicseg='TEXT32' len=29
  "__ZTINSt8ios_base7failureE"                                         @3459   ; magicseg='TEXT32' len=26
  "__ZTVSt12domain_error"                                              @3460   ; magicseg='TEXT32' len=21
  "__ZTVSt16invalid_argument"                                          @3461   ; magicseg='TEXT32' len=25
  "__ZTVSt12length_error"                                              @3462   ; magicseg='TEXT32' len=21
  "__ZTVSt12out_of_range"                                              @3463   ; magicseg='TEXT32' len=21
  "__ZTVSt11range_error"                                               @3464   ; magicseg='TEXT32' len=20
  "__ZTVSt14overflow_error"                                            @3465   ; magicseg='TEXT32' len=23
  "__ZTVSt15underflow_error"                                           @3466   ; magicseg='TEXT32' len=24
  "__ZTSSt13bad_exception"                                             @3467   ; magicseg='TEXT32' len=22
  "__ZTISt9exception"                                                  @3468   ; magicseg='TEXT32' len=17
  "__ZTSSt9bad_alloc"                                                  @3469   ; magicseg='TEXT32' len=17
  "__ZTSSt11logic_error"                                               @3470   ; magicseg='TEXT32' len=20
  "__ZTSSt12domain_error"                                              @3471   ; magicseg='TEXT32' len=21
  "__ZTSSt16invalid_argument"                                          @3472   ; magicseg='TEXT32' len=25
  "__ZTSSt12length_error"                                              @3473   ; magicseg='TEXT32' len=21
  "__ZTSSt12out_of_range"                                              @3474   ; magicseg='TEXT32' len=21
  "__ZTSSt13runtime_error"                                             @3475   ; magicseg='TEXT32' len=22
  "__ZTSSt11range_error"                                               @3476   ; magicseg='TEXT32' len=20
  "__ZTSSt14overflow_error"                                            @3477   ; magicseg='TEXT32' len=23
  "__ZTSSt15underflow_error"                                           @3478   ; magicseg='TEXT32' len=24
  "__ZTSSt8bad_cast"                                                   @3479   ; magicseg='TEXT32' len=16
  "__ZTSSt10bad_typeid"                                                @3480   ; magicseg='TEXT32' len=19
  "__ZTSNSt8ios_base7failureE"                                         @3481   ; magicseg='TEXT32' len=26
  "__ZNSt15underflow_errorD0Ev"                                        @3482   ; magicseg='TEXT32' len=27
  "__ZNSt14overflow_errorD0Ev"                                         @3483   ; magicseg='TEXT32' len=26
  "__ZNSt11range_errorD0Ev"                                            @3484   ; magicseg='TEXT32' len=23
  "__ZNSt12out_of_rangeD0Ev"                                           @3485   ; magicseg='TEXT32' len=24
  "__ZNSt12length_errorD0Ev"                                           @3486   ; magicseg='TEXT32' len=24
  "__ZNSt16invalid_argumentD0Ev"                                       @3487   ; magicseg='TEXT32' len=28
  "__ZNSt12domain_errorD0Ev"                                           @3488   ; magicseg='TEXT32' len=24
  "__ZTSSt9exception"                                                  @3489   ; magicseg='TEXT32' len=17
  "__ZN9__gnu_cxx19_GLIBCPP_mutex_initEv"                              @3490   ; magicseg='TEXT32' len=37
  "__ZN9__gnu_cxx27_GLIBCPP_mutex_address_initEv"                      @3491   ; magicseg='TEXT32' len=45
  "__ZN9__gnu_cxx8__compat8_S_atomsE"                                  @3492   ; magicseg='TEXT32' len=33
  "__ZNKSt9basic_iosIcSt11char_traitsIcEE7rdstateEv"                   @3493   ; magicseg='TEXT32' len=48
  "__ZNKSt9basic_iosIcSt11char_traitsIcEE4failEv"                      @3494   ; magicseg='TEXT32' len=45
  "__ZNKSt9basic_iosIcSt11char_traitsIcEEcvPvEv"                       @3495   ; magicseg='TEXT32' len=44
  "__ZNKSt9basic_iosIcSt11char_traitsIcEEntEv"                         @3496   ; magicseg='TEXT32' len=42
  "__ZNKSt9basic_iosIcSt11char_traitsIcEE5rdbufEv"                     @3497   ; magicseg='TEXT32' len=46
  "__ZNKSt9basic_iosIcSt11char_traitsIcEE10exceptionsEv"               @3498   ; magicseg='TEXT32' len=52
  "__ZNSt9basic_iosIcSt11char_traitsIcEE5clearESt12_Ios_Iostate"       @3499   ; magicseg='TEXT32' len=60
  "__ZNSt9basic_iosIcSt11char_traitsIcEE8setstateESt12_Ios_Iostate"    @3500   ; magicseg='TEXT32' len=63
  "__ZNSt9basic_iosIcSt11char_traitsIcEE11_M_setstateESt12_Ios_Iostate"                    @3501   ; magicseg='TEXT32' len=67
  "__ZNKSt9basic_iosIcSt11char_traitsIcEE4goodEv"                      @3502   ; magicseg='TEXT32' len=45
  "__ZNKSt9basic_iosIcSt11char_traitsIcEE3eofEv"                       @3503   ; magicseg='TEXT32' len=44
  "__ZNKSt9basic_iosIcSt11char_traitsIcEE3badEv"                       @3504   ; magicseg='TEXT32' len=44
  "__ZNSt9basic_iosIcSt11char_traitsIcEE10exceptionsESt12_Ios_Iostate"                     @3505   ; magicseg='TEXT32' len=66
  "__ZNSt9basic_iosIcSt11char_traitsIcEEC2EPSt15basic_streambufIcS1_E"                     @3506   ; magicseg='TEXT32' len=66
  "__ZTVSt9basic_iosIcSt11char_traitsIcEE"                             @3507   ; magicseg='TEXT32' len=38
  "__ZNSt9basic_iosIcSt11char_traitsIcEE4initEPSt15basic_streambufIcS1_E"                  @3508   ; magicseg='TEXT32' len=69
  "__ZNSt9basic_iosIcSt11char_traitsIcEEC1EPSt15basic_streambufIcS1_E"                     @3509   ; magicseg='TEXT32' len=66
  "__ZNSt9basic_iosIcSt11char_traitsIcEED2Ev"                          @3510   ; magicseg='TEXT32' len=41
  "__ZNSt9basic_iosIcSt11char_traitsIcEED1Ev"                          @3511   ; magicseg='TEXT32' len=41
  "__ZNSt9basic_iosIcSt11char_traitsIcEED0Ev"                          @3512   ; magicseg='TEXT32' len=41
  "__ZNKSt9basic_iosIcSt11char_traitsIcEE3tieEv"                       @3513   ; magicseg='TEXT32' len=44
  "__ZNSt9basic_iosIcSt11char_traitsIcEE3tieEPSo"                      @3514   ; magicseg='TEXT32' len=45
  "__ZNSt9basic_iosIcSt11char_traitsIcEE5rdbufEPSt15basic_streambufIcS1_E"                 @3515   ; magicseg='TEXT32' len=70
  "__ZNKSt9basic_iosIcSt11char_traitsIcEE4fillEv"                      @3516   ; magicseg='TEXT32' len=45
  "__ZNKSt9basic_iosIcSt11char_traitsIcEE5widenEc"                     @3517   ; magicseg='TEXT32' len=46
  "__ZNSt9basic_iosIcSt11char_traitsIcEE4fillEc"                       @3518   ; magicseg='TEXT32' len=44
  "__ZNSt9basic_iosIcSt11char_traitsIcEE7copyfmtERKS2_"                @3519   ; magicseg='TEXT32' len=51
  "__ZNSt9basic_iosIcSt11char_traitsIcEE15_M_cache_localeERKSt6locale"                     @3520   ; magicseg='TEXT32' len=66
  "__ZNSt9basic_iosIcSt11char_traitsIcEE5imbueERKSt6locale"            @3521   ; magicseg='TEXT32' len=55
  "__ZNKSt9basic_iosIcSt11char_traitsIcEE14_M_check_facetEPKNSt6locale5facetE"             @3522   ; magicseg='TEXT32' len=74
  "__ZNKSt9basic_iosIcSt11char_traitsIcEE6narrowEcc"                   @3523   ; magicseg='TEXT32' len=48
  "__ZNSt9basic_iosIcSt11char_traitsIcEEC2Ev"                          @3524   ; magicseg='TEXT32' len=41
  "__ZNSt9basic_iosIcSt11char_traitsIcEEC1Ev"                          @3525   ; magicseg='TEXT32' len=41
  "__ZNSt9basic_iosIcSt11char_traitsIcEE15_M_cache_facetsERKSt6locale"                     @3526   ; magicseg='TEXT32' len=66
  "__ZSt7setfillIcESt8_SetfillIT_ES1_"                                 @3527   ; magicseg='TEXT32' len=34
  "__ZNSdC2EPSt15basic_streambufIcSt11char_traitsIcEE"                 @3528   ; magicseg='TEXT32' len=50
  "__ZNSdC1EPSt15basic_streambufIcSt11char_traitsIcEE"                 @3529   ; magicseg='TEXT32' len=50
  "__ZNSdD2Ev"                                                         @3530   ; magicseg='TEXT32' len=10
  "__ZTISt9basic_iosIcSt11char_traitsIcEE"                             @3531   ; magicseg='TEXT32' len=38
  "__ZTSSt9basic_iosIcSt11char_traitsIcEE"                             @3532   ; magicseg='TEXT32' len=38
  "__ZTISt8ios_base"                                                   @3533   ; magicseg='TEXT32' len=16
  "__ZTSSt8ios_base"                                                   @3534   ; magicseg='TEXT32' len=16
  "__ZNSt11__ios_flags12_S_boolalphaE"                                 @3535   ; magicseg='TEXT32' len=34
  "__ZNSt11__ios_flags6_S_decE"                                        @3536   ; magicseg='TEXT32' len=27
  "__ZNSt11__ios_flags8_S_fixedE"                                      @3537   ; magicseg='TEXT32' len=29
  "__ZNSt11__ios_flags6_S_hexE"                                        @3538   ; magicseg='TEXT32' len=27
  "__ZNSt11__ios_flags11_S_internalE"                                  @3539   ; magicseg='TEXT32' len=33
  "__ZNSt11__ios_flags7_S_leftE"                                       @3540   ; magicseg='TEXT32' len=28
  "__ZNSt11__ios_flags6_S_octE"                                        @3541   ; magicseg='TEXT32' len=27
  "__ZNSt11__ios_flags8_S_rightE"                                      @3542   ; magicseg='TEXT32' len=29
  "__ZNSt11__ios_flags13_S_scientificE"                                @3543   ; magicseg='TEXT32' len=35
  "__ZNSt11__ios_flags11_S_showbaseE"                                  @3544   ; magicseg='TEXT32' len=33
  "__ZNSt11__ios_flags12_S_showpointE"                                 @3545   ; magicseg='TEXT32' len=34
  "__ZNSt11__ios_flags10_S_showposE"                                   @3546   ; magicseg='TEXT32' len=32
  "__ZNSt11__ios_flags9_S_skipwsE"                                     @3547   ; magicseg='TEXT32' len=30
  "__ZNSt11__ios_flags10_S_unitbufE"                                   @3548   ; magicseg='TEXT32' len=32
  "__ZNSt11__ios_flags12_S_uppercaseE"                                 @3549   ; magicseg='TEXT32' len=34
  "__ZNSt11__ios_flags14_S_adjustfieldE"                               @3550   ; magicseg='TEXT32' len=36
  "__ZNSt11__ios_flags12_S_basefieldE"                                 @3551   ; magicseg='TEXT32' len=34
  "__ZNSt11__ios_flags13_S_floatfieldE"                                @3552   ; magicseg='TEXT32' len=35
  "__ZNSt11__ios_flags9_S_badbitE"                                     @3553   ; magicseg='TEXT32' len=30
  "__ZNSt11__ios_flags9_S_eofbitE"                                     @3554   ; magicseg='TEXT32' len=30
  "__ZNSt11__ios_flags10_S_failbitE"                                   @3555   ; magicseg='TEXT32' len=32
  "__ZNSt11__ios_flags6_S_appE"                                        @3556   ; magicseg='TEXT32' len=27
  "__ZNSt11__ios_flags6_S_ateE"                                        @3557   ; magicseg='TEXT32' len=27
  "__ZNSt11__ios_flags6_S_binE"                                        @3558   ; magicseg='TEXT32' len=27
  "__ZNSt11__ios_flags5_S_inE"                                         @3559   ; magicseg='TEXT32' len=26
  "__ZNSt11__ios_flags6_S_outE"                                        @3560   ; magicseg='TEXT32' len=27
  "__ZNSt11__ios_flags8_S_truncE"                                      @3561   ; magicseg='TEXT32' len=29
  "__ZNSt8ios_base9boolalphaE"                                         @3562   ; magicseg='TEXT32' len=26
  "__ZNSt8ios_base3decE"                                               @3563   ; magicseg='TEXT32' len=20
  "__ZNSt8ios_base5fixedE"                                             @3564   ; magicseg='TEXT32' len=22
  "__ZNSt8ios_base3hexE"                                               @3565   ; magicseg='TEXT32' len=20
  "__ZNSt8ios_base8internalE"                                          @3566   ; magicseg='TEXT32' len=25
  "__ZNSt8ios_base4leftE"                                              @3567   ; magicseg='TEXT32' len=21
  "__ZNSt8ios_base3octE"                                               @3568   ; magicseg='TEXT32' len=20
  "__ZNSt8ios_base5rightE"                                             @3569   ; magicseg='TEXT32' len=22
  "__ZNSt8ios_base10scientificE"                                       @3570   ; magicseg='TEXT32' len=28
  "__ZNSt8ios_base8showbaseE"                                          @3571   ; magicseg='TEXT32' len=25
  "__ZNSt8ios_base9showpointE"                                         @3572   ; magicseg='TEXT32' len=26
  "__ZNSt8ios_base7showposE"                                           @3573   ; magicseg='TEXT32' len=24
  "__ZNSt8ios_base6skipwsE"                                            @3574   ; magicseg='TEXT32' len=23
  "__ZNSt8ios_base7unitbufE"                                           @3575   ; magicseg='TEXT32' len=24
  "__ZNSt8ios_base9uppercaseE"                                         @3576   ; magicseg='TEXT32' len=26
  "__ZNSt8ios_base11adjustfieldE"                                      @3577   ; magicseg='TEXT32' len=29
  "__ZNSt8ios_base9basefieldE"                                         @3578   ; magicseg='TEXT32' len=26
  "__ZNSt8ios_base10floatfieldE"                                       @3579   ; magicseg='TEXT32' len=28
  "__ZNSt8ios_base6badbitE"                                            @3580   ; magicseg='TEXT32' len=23
  "__ZNSt8ios_base6eofbitE"                                            @3581   ; magicseg='TEXT32' len=23
  "__ZNSt8ios_base7failbitE"                                           @3582   ; magicseg='TEXT32' len=24
  "__ZNSt8ios_base7goodbitE"                                           @3583   ; magicseg='TEXT32' len=24
  "__ZNSt8ios_base3appE"                                               @3584   ; magicseg='TEXT32' len=20
  "__ZNSt8ios_base3ateE"                                               @3585   ; magicseg='TEXT32' len=20
  "__ZNSt8ios_base6binaryE"                                            @3586   ; magicseg='TEXT32' len=23
  "__ZNSt8ios_base2inE"                                                @3587   ; magicseg='TEXT32' len=19
  "__ZNSt8ios_base3outE"                                               @3588   ; magicseg='TEXT32' len=20
  "__ZNSt8ios_base5truncE"                                             @3589   ; magicseg='TEXT32' len=22
  "__ZNSt8ios_base3begE"                                               @3590   ; magicseg='TEXT32' len=20
  "__ZNSt8ios_base3curE"                                               @3591   ; magicseg='TEXT32' len=20
  "__ZNSt8ios_base3endE"                                               @3592   ; magicseg='TEXT32' len=20
  "__ZNSt8ios_base18_S_local_word_sizeE"                               @3593   ; magicseg='TEXT32' len=36
  "__ZNSt8ios_base7failureC2ERKSs"                                     @3594   ; magicseg='TEXT32' len=30
  "__ZTVNSt8ios_base7failureE"                                         @3595   ; magicseg='TEXT32' len=26
  "__ZNSt8ios_base7failureC1ERKSs"                                     @3596   ; magicseg='TEXT32' len=30
  "__ZNSt8ios_base7failureD2Ev"                                        @3597   ; magicseg='TEXT32' len=27
  "__ZNSt8ios_base7failureD1Ev"                                        @3598   ; magicseg='TEXT32' len=27
  "__ZNSt8ios_base7failureD0Ev"                                        @3599   ; magicseg='TEXT32' len=27
  "__ZNKSt8ios_base7failure4whatEv"                                    @3600   ; magicseg='TEXT32' len=31
  "__ZNSt8ios_base4Init13_S_ios_createEb"                              @3601   ; magicseg='TEXT32' len=37
  "__ZNSt8ios_baseC2Ev"                                                @3602   ; magicseg='TEXT32' len=19
  "__ZNSt8ios_baseD2Ev"                                                @3603   ; magicseg='TEXT32' len=19
  "__ZNSt8ios_base4Init14_S_ios_destroyEv"                             @3604   ; magicseg='TEXT32' len=38
  "__ZNSt8ios_base4InitC2Ev"                                           @3605   ; magicseg='TEXT32' len=24
  "__ZNSt8ios_base4InitC1Ev"                                           @3606   ; magicseg='TEXT32' len=24
  "__ZNSt8ios_base4InitD2Ev"                                           @3607   ; magicseg='TEXT32' len=24
  "__ZNSt8ios_base4InitD1Ev"                                           @3608   ; magicseg='TEXT32' len=24
  "__ZNSt8ios_base6xallocEv"                                           @3609   ; magicseg='TEXT32' len=24
  "__ZNSt8ios_base13_M_grow_wordsEi"                                   @3610   ; magicseg='TEXT32' len=32
  "__ZNSt8ios_base7_M_initEv"                                          @3611   ; magicseg='TEXT32' len=25
  "__ZNSt8ios_base5imbueERKSt6locale"                                  @3612   ; magicseg='TEXT32' len=33
  "__ZNSt8ios_base17_M_call_callbacksENS_5eventE"                      @3613   ; magicseg='TEXT32' len=45
  "__ZNSt8ios_baseC1Ev"                                                @3614   ; magicseg='TEXT32' len=19
  "__ZNSt8ios_base20_M_dispose_callbacksEv"                            @3615   ; magicseg='TEXT32' len=39
  "__ZNSt8ios_baseD1Ev"                                                @3616   ; magicseg='TEXT32' len=19
  "__ZNSt8ios_base17register_callbackEPFvNS_5eventERS_iEi"             @3617   ; magicseg='TEXT32' len=54
  "__ZNSt8ios_base15sync_with_stdioEb"                                 @3618   ; magicseg='TEXT32' len=34
  "__ZNSiC2EPSt15basic_streambufIcSt11char_traitsIcEE"                 @3619   ; magicseg='TEXT32' len=50
  "__ZNSiC1EPSt15basic_streambufIcSt11char_traitsIcEE"                 @3620   ; magicseg='TEXT32' len=50
  "__ZTVSi"                                                            @3621   ; magicseg='TEXT32' len=7
  "__ZNSiD2Ev"                                                         @3622   ; magicseg='TEXT32' len=10
  "__ZNSiD1Ev"                                                         @3623   ; magicseg='TEXT32' len=10
  "__ZTv0_n12_NSiD1Ev"                                                 @3624   ; magicseg='TEXT32' len=18
  "__ZNSiD0Ev"                                                         @3625   ; magicseg='TEXT32' len=10
  "__ZTv0_n12_NSiD0Ev"                                                 @3626   ; magicseg='TEXT32' len=18
  "__ZNSirsEPFRSiS_E"                                                  @3627   ; magicseg='TEXT32' len=17
  "__ZNSirsEPFRSt9basic_iosIcSt11char_traitsIcEES3_E"                  @3628   ; magicseg='TEXT32' len=49
  "__ZNSirsEPFRSt8ios_baseS0_E"                                        @3629   ; magicseg='TEXT32' len=27
  "__ZNSi6sentrycvbEv"                                                 @3630   ; magicseg='TEXT32' len=18
  "__ZNSirsERb"                                                        @3631   ; magicseg='TEXT32' len=11
  "__ZNSi6sentryC1ERSib"                                               @3632   ; magicseg='TEXT32' len=20
  "__ZNSirsERs"                                                        @3633   ; magicseg='TEXT32' len=11
  "__ZNSirsERt"                                                        @3634   ; magicseg='TEXT32' len=11
  "__ZNSirsERi"                                                        @3635   ; magicseg='TEXT32' len=11
  "__ZNSirsERj"                                                        @3636   ; magicseg='TEXT32' len=11
  "__ZNSirsERl"                                                        @3637   ; magicseg='TEXT32' len=11
  "__ZNSirsERm"                                                        @3638   ; magicseg='TEXT32' len=11
  "__ZNSirsERx"                                                        @3639   ; magicseg='TEXT32' len=11
  "__ZNSirsERy"                                                        @3640   ; magicseg='TEXT32' len=11
  "__ZNSirsERf"                                                        @3641   ; magicseg='TEXT32' len=11
  "__ZNSirsERd"                                                        @3642   ; magicseg='TEXT32' len=11
  "__ZNSirsERe"                                                        @3643   ; magicseg='TEXT32' len=11
  "__ZNSirsERPv"                                                       @3644   ; magicseg='TEXT32' len=12
  "__ZNSirsEPSt15basic_streambufIcSt11char_traitsIcEE"                 @3645   ; magicseg='TEXT32' len=50
  "__ZNKSi6gcountEv"                                                   @3646   ; magicseg='TEXT32' len=16
  "__ZNSi3getEv"                                                       @3647   ; magicseg='TEXT32' len=12
  "__ZNSi3getERc"                                                      @3648   ; magicseg='TEXT32' len=13
  "__ZNSi3getEPcic"                                                    @3649   ; magicseg='TEXT32' len=15
  "__ZNSi3getEPci"                                                     @3650   ; magicseg='TEXT32' len=14
  "__ZNSi3getERSt15basic_streambufIcSt11char_traitsIcEEc"              @3651   ; magicseg='TEXT32' len=53
  "__ZNSi3getERSt15basic_streambufIcSt11char_traitsIcEE"               @3652   ; magicseg='TEXT32' len=52
  "__ZNSi7getlineEPcic"                                                @3653   ; magicseg='TEXT32' len=19
  "__ZNSi7getlineEPci"                                                 @3654   ; magicseg='TEXT32' len=18
  "__ZNSi6ignoreEii"                                                   @3655   ; magicseg='TEXT32' len=16
  "__ZNSi4peekEv"                                                      @3656   ; magicseg='TEXT32' len=13
  "__ZNSi4readEPci"                                                    @3657   ; magicseg='TEXT32' len=15
  "__ZNSi8readsomeEPci"                                                @3658   ; magicseg='TEXT32' len=19
  "__ZNSi7putbackEc"                                                   @3659   ; magicseg='TEXT32' len=16
  "__ZNSi5ungetEv"                                                     @3660   ; magicseg='TEXT32' len=14
  "__ZNSi4syncEv"                                                      @3661   ; magicseg='TEXT32' len=13
  "__ZNSi5tellgEv"                                                     @3662   ; magicseg='TEXT32' len=14
  "__ZNSi5seekgESt4fposI11__mbstate_tE"                                @3663   ; magicseg='TEXT32' len=35
  "__ZNSi5seekgElSt12_Ios_Seekdir"                                     @3664   ; magicseg='TEXT32' len=30
  "__ZNSi6sentryC2ERSib"                                               @3665   ; magicseg='TEXT32' len=20
  "__ZSt2wsIcSt11char_traitsIcEERSt13basic_istreamIT_T0_ES6_"          @3666   ; magicseg='TEXT32' len=57
  "__ZStrsIcSt11char_traitsIcEERSt13basic_istreamIT_T0_ES6_RS3_"       @3667   ; magicseg='TEXT32' len=60
  "__ZStrsISt11char_traitsIcEERSt13basic_istreamIcT_ES5_Rh"            @3668   ; magicseg='TEXT32' len=55
  "__ZStrsISt11char_traitsIcEERSt13basic_istreamIcT_ES5_Ra"            @3669   ; magicseg='TEXT32' len=55
  "__ZStrsIcSt11char_traitsIcEERSt13basic_istreamIT_T0_ES6_PS3_"       @3670   ; magicseg='TEXT32' len=60
  "__ZStrsISt11char_traitsIcEERSt13basic_istreamIcT_ES5_Ph"            @3671   ; magicseg='TEXT32' len=55
  "__ZStrsISt11char_traitsIcEERSt13basic_istreamIcT_ES5_Pa"            @3672   ; magicseg='TEXT32' len=55
  "__ZStrsIcSt11char_traitsIcEERSt13basic_istreamIT_T0_ES6_St8_SetfillIS3_E"               @3673   ; magicseg='TEXT32' len=72
  "__ZStrsIcSt11char_traitsIcEERSt13basic_istreamIT_T0_ES6_St12_Setiosflags"               @3674   ; magicseg='TEXT32' len=72
  "__ZStrsIcSt11char_traitsIcEERSt13basic_istreamIT_T0_ES6_St14_Resetiosflags"             @3675   ; magicseg='TEXT32' len=74
  "__ZStrsIcSt11char_traitsIcEERSt13basic_istreamIT_T0_ES6_St8_Setbase"                    @3676   ; magicseg='TEXT32' len=67
  "__ZStrsIcSt11char_traitsIcEERSt13basic_istreamIT_T0_ES6_St13_Setprecision"              @3677   ; magicseg='TEXT32' len=73
  "__ZStrsIcSt11char_traitsIcEERSt13basic_istreamIT_T0_ES6_St5_Setw"   @3678   ; magicseg='TEXT32' len=64
  "__ZTISi"                                                            @3679   ; magicseg='TEXT32' len=7
  "__ZTTSi"                                                            @3680   ; magicseg='TEXT32' len=7
  "__ZTSSi"                                                            @3681   ; magicseg='TEXT32' len=7
  "__ZNSt21__numeric_limits_base14is_specializedE"                     @3682   ; magicseg='TEXT32' len=46
  "__ZNSt21__numeric_limits_base6digitsE"                              @3683   ; magicseg='TEXT32' len=37
  "__ZNSt21__numeric_limits_base8digits10E"                            @3684   ; magicseg='TEXT32' len=39
  "__ZNSt21__numeric_limits_base9is_signedE"                           @3685   ; magicseg='TEXT32' len=40
  "__ZNSt21__numeric_limits_base10is_integerE"                         @3686   ; magicseg='TEXT32' len=42
  "__ZNSt21__numeric_limits_base8is_exactE"                            @3687   ; magicseg='TEXT32' len=39
  "__ZNSt21__numeric_limits_base5radixE"                               @3688   ; magicseg='TEXT32' len=36
  "__ZNSt21__numeric_limits_base12min_exponentE"                       @3689   ; magicseg='TEXT32' len=44
  "__ZNSt21__numeric_limits_base14min_exponent10E"                     @3690   ; magicseg='TEXT32' len=46
  "__ZNSt21__numeric_limits_base12max_exponentE"                       @3691   ; magicseg='TEXT32' len=44
  "__ZNSt21__numeric_limits_base14max_exponent10E"                     @3692   ; magicseg='TEXT32' len=46
  "__ZNSt21__numeric_limits_base12has_infinityE"                       @3693   ; magicseg='TEXT32' len=44
  "__ZNSt21__numeric_limits_base13has_quiet_NaNE"                      @3694   ; magicseg='TEXT32' len=45
  "__ZNSt21__numeric_limits_base17has_signaling_NaNE"                  @3695   ; magicseg='TEXT32' len=49
  "__ZNSt21__numeric_limits_base10has_denormE"                         @3696   ; magicseg='TEXT32' len=42
  "__ZNSt21__numeric_limits_base15has_denorm_lossE"                    @3697   ; magicseg='TEXT32' len=47
  "__ZNSt21__numeric_limits_base9is_iec559E"                           @3698   ; magicseg='TEXT32' len=40
  "__ZNSt21__numeric_limits_base10is_boundedE"                         @3699   ; magicseg='TEXT32' len=42
  "__ZNSt21__numeric_limits_base9is_moduloE"                           @3700   ; magicseg='TEXT32' len=40
  "__ZNSt21__numeric_limits_base5trapsE"                               @3701   ; magicseg='TEXT32' len=36
  "__ZNSt21__numeric_limits_base15tinyness_beforeE"                    @3702   ; magicseg='TEXT32' len=47
  "__ZNSt21__numeric_limits_base11round_styleE"                        @3703   ; magicseg='TEXT32' len=43
  "__ZNSt14numeric_limitsIbE14is_specializedE"                         @3704   ; magicseg='TEXT32' len=42
  "__ZNSt14numeric_limitsIbE6digitsE"                                  @3705   ; magicseg='TEXT32' len=33
  "__ZNSt14numeric_limitsIbE8digits10E"                                @3706   ; magicseg='TEXT32' len=35
  "__ZNSt14numeric_limitsIbE9is_signedE"                               @3707   ; magicseg='TEXT32' len=36
  "__ZNSt14numeric_limitsIbE10is_integerE"                             @3708   ; magicseg='TEXT32' len=38
  "__ZNSt14numeric_limitsIbE8is_exactE"                                @3709   ; magicseg='TEXT32' len=35
  "__ZNSt14numeric_limitsIbE5radixE"                                   @3710   ; magicseg='TEXT32' len=32
  "__ZNSt14numeric_limitsIbE12min_exponentE"                           @3711   ; magicseg='TEXT32' len=40
  "__ZNSt14numeric_limitsIbE14min_exponent10E"                         @3712   ; magicseg='TEXT32' len=42
  "__ZNSt14numeric_limitsIbE12max_exponentE"                           @3713   ; magicseg='TEXT32' len=40
  "__ZNSt14numeric_limitsIbE14max_exponent10E"                         @3714   ; magicseg='TEXT32' len=42
  "__ZNSt14numeric_limitsIbE12has_infinityE"                           @3715   ; magicseg='TEXT32' len=40
  "__ZNSt14numeric_limitsIbE13has_quiet_NaNE"                          @3716   ; magicseg='TEXT32' len=41
  "__ZNSt14numeric_limitsIbE17has_signaling_NaNE"                      @3717   ; magicseg='TEXT32' len=45
  "__ZNSt14numeric_limitsIbE10has_denormE"                             @3718   ; magicseg='TEXT32' len=38
  "__ZNSt14numeric_limitsIbE15has_denorm_lossE"                        @3719   ; magicseg='TEXT32' len=43
  "__ZNSt14numeric_limitsIbE9is_iec559E"                               @3720   ; magicseg='TEXT32' len=36
  "__ZNSt14numeric_limitsIbE10is_boundedE"                             @3721   ; magicseg='TEXT32' len=38
  "__ZNSt14numeric_limitsIbE9is_moduloE"                               @3722   ; magicseg='TEXT32' len=36
  "__ZNSt14numeric_limitsIbE5trapsE"                                   @3723   ; magicseg='TEXT32' len=32
  "__ZNSt14numeric_limitsIbE15tinyness_beforeE"                        @3724   ; magicseg='TEXT32' len=43
  "__ZNSt14numeric_limitsIbE11round_styleE"                            @3725   ; magicseg='TEXT32' len=39
  "__ZNSt14numeric_limitsIcE14is_specializedE"                         @3726   ; magicseg='TEXT32' len=42
  "__ZNSt14numeric_limitsIcE6digitsE"                                  @3727   ; magicseg='TEXT32' len=33
  "__ZNSt14numeric_limitsIcE8digits10E"                                @3728   ; magicseg='TEXT32' len=35
  "__ZNSt14numeric_limitsIcE9is_signedE"                               @3729   ; magicseg='TEXT32' len=36
  "__ZNSt14numeric_limitsIcE10is_integerE"                             @3730   ; magicseg='TEXT32' len=38
  "__ZNSt14numeric_limitsIcE8is_exactE"                                @3731   ; magicseg='TEXT32' len=35
  "__ZNSt14numeric_limitsIcE5radixE"                                   @3732   ; magicseg='TEXT32' len=32
  "__ZNSt14numeric_limitsIcE12min_exponentE"                           @3733   ; magicseg='TEXT32' len=40
  "__ZNSt14numeric_limitsIcE14min_exponent10E"                         @3734   ; magicseg='TEXT32' len=42
  "__ZNSt14numeric_limitsIcE12max_exponentE"                           @3735   ; magicseg='TEXT32' len=40
  "__ZNSt14numeric_limitsIcE14max_exponent10E"                         @3736   ; magicseg='TEXT32' len=42
  "__ZNSt14numeric_limitsIcE12has_infinityE"                           @3737   ; magicseg='TEXT32' len=40
  "__ZNSt14numeric_limitsIcE13has_quiet_NaNE"                          @3738   ; magicseg='TEXT32' len=41
  "__ZNSt14numeric_limitsIcE17has_signaling_NaNE"                      @3739   ; magicseg='TEXT32' len=45
  "__ZNSt14numeric_limitsIcE10has_denormE"                             @3740   ; magicseg='TEXT32' len=38
  "__ZNSt14numeric_limitsIcE15has_denorm_lossE"                        @3741   ; magicseg='TEXT32' len=43
  "__ZNSt14numeric_limitsIcE9is_iec559E"                               @3742   ; magicseg='TEXT32' len=36
  "__ZNSt14numeric_limitsIcE10is_boundedE"                             @3743   ; magicseg='TEXT32' len=38
  "__ZNSt14numeric_limitsIcE9is_moduloE"                               @3744   ; magicseg='TEXT32' len=36
  "__ZNSt14numeric_limitsIcE5trapsE"                                   @3745   ; magicseg='TEXT32' len=32
  "__ZNSt14numeric_limitsIcE15tinyness_beforeE"                        @3746   ; magicseg='TEXT32' len=43
  "__ZNSt14numeric_limitsIcE11round_styleE"                            @3747   ; magicseg='TEXT32' len=39
  "__ZNSt14numeric_limitsIaE14is_specializedE"                         @3748   ; magicseg='TEXT32' len=42
  "__ZNSt14numeric_limitsIaE6digitsE"                                  @3749   ; magicseg='TEXT32' len=33
  "__ZNSt14numeric_limitsIaE8digits10E"                                @3750   ; magicseg='TEXT32' len=35
  "__ZNSt14numeric_limitsIaE9is_signedE"                               @3751   ; magicseg='TEXT32' len=36
  "__ZNSt14numeric_limitsIaE10is_integerE"                             @3752   ; magicseg='TEXT32' len=38
  "__ZNSt14numeric_limitsIaE8is_exactE"                                @3753   ; magicseg='TEXT32' len=35
  "__ZNSt14numeric_limitsIaE5radixE"                                   @3754   ; magicseg='TEXT32' len=32
  "__ZNSt14numeric_limitsIaE12min_exponentE"                           @3755   ; magicseg='TEXT32' len=40
  "__ZNSt14numeric_limitsIaE14min_exponent10E"                         @3756   ; magicseg='TEXT32' len=42
  "__ZNSt14numeric_limitsIaE12max_exponentE"                           @3757   ; magicseg='TEXT32' len=40
  "__ZNSt14numeric_limitsIaE14max_exponent10E"                         @3758   ; magicseg='TEXT32' len=42
  "__ZNSt14numeric_limitsIaE12has_infinityE"                           @3759   ; magicseg='TEXT32' len=40
  "__ZNSt14numeric_limitsIaE13has_quiet_NaNE"                          @3760   ; magicseg='TEXT32' len=41
  "__ZNSt14numeric_limitsIaE17has_signaling_NaNE"                      @3761   ; magicseg='TEXT32' len=45
  "__ZNSt14numeric_limitsIaE10has_denormE"                             @3762   ; magicseg='TEXT32' len=38
  "__ZNSt14numeric_limitsIaE15has_denorm_lossE"                        @3763   ; magicseg='TEXT32' len=43
  "__ZNSt14numeric_limitsIaE9is_iec559E"                               @3764   ; magicseg='TEXT32' len=36
  "__ZNSt14numeric_limitsIaE10is_boundedE"                             @3765   ; magicseg='TEXT32' len=38
  "__ZNSt14numeric_limitsIaE9is_moduloE"                               @3766   ; magicseg='TEXT32' len=36
  "__ZNSt14numeric_limitsIaE5trapsE"                                   @3767   ; magicseg='TEXT32' len=32
  "__ZNSt14numeric_limitsIaE15tinyness_beforeE"                        @3768   ; magicseg='TEXT32' len=43
  "__ZNSt14numeric_limitsIaE11round_styleE"                            @3769   ; magicseg='TEXT32' len=39
  "__ZNSt14numeric_limitsIhE14is_specializedE"                         @3770   ; magicseg='TEXT32' len=42
  "__ZNSt14numeric_limitsIhE6digitsE"                                  @3771   ; magicseg='TEXT32' len=33
  "__ZNSt14numeric_limitsIhE8digits10E"                                @3772   ; magicseg='TEXT32' len=35
  "__ZNSt14numeric_limitsIhE9is_signedE"                               @3773   ; magicseg='TEXT32' len=36
  "__ZNSt14numeric_limitsIhE10is_integerE"                             @3774   ; magicseg='TEXT32' len=38
  "__ZNSt14numeric_limitsIhE8is_exactE"                                @3775   ; magicseg='TEXT32' len=35
  "__ZNSt14numeric_limitsIhE5radixE"                                   @3776   ; magicseg='TEXT32' len=32
  "__ZNSt14numeric_limitsIhE12min_exponentE"                           @3777   ; magicseg='TEXT32' len=40
  "__ZNSt14numeric_limitsIhE14min_exponent10E"                         @3778   ; magicseg='TEXT32' len=42
  "__ZNSt14numeric_limitsIhE12max_exponentE"                           @3779   ; magicseg='TEXT32' len=40
  "__ZNSt14numeric_limitsIhE14max_exponent10E"                         @3780   ; magicseg='TEXT32' len=42
  "__ZNSt14numeric_limitsIhE12has_infinityE"                           @3781   ; magicseg='TEXT32' len=40
  "__ZNSt14numeric_limitsIhE13has_quiet_NaNE"                          @3782   ; magicseg='TEXT32' len=41
  "__ZNSt14numeric_limitsIhE17has_signaling_NaNE"                      @3783   ; magicseg='TEXT32' len=45
  "__ZNSt14numeric_limitsIhE10has_denormE"                             @3784   ; magicseg='TEXT32' len=38
  "__ZNSt14numeric_limitsIhE15has_denorm_lossE"                        @3785   ; magicseg='TEXT32' len=43
  "__ZNSt14numeric_limitsIhE9is_iec559E"                               @3786   ; magicseg='TEXT32' len=36
  "__ZNSt14numeric_limitsIhE10is_boundedE"                             @3787   ; magicseg='TEXT32' len=38
  "__ZNSt14numeric_limitsIhE9is_moduloE"                               @3788   ; magicseg='TEXT32' len=36
  "__ZNSt14numeric_limitsIhE5trapsE"                                   @3789   ; magicseg='TEXT32' len=32
  "__ZNSt14numeric_limitsIhE15tinyness_beforeE"                        @3790   ; magicseg='TEXT32' len=43
  "__ZNSt14numeric_limitsIhE11round_styleE"                            @3791   ; magicseg='TEXT32' len=39
  "__ZNSt14numeric_limitsIsE14is_specializedE"                         @3792   ; magicseg='TEXT32' len=42
  "__ZNSt14numeric_limitsIsE6digitsE"                                  @3793   ; magicseg='TEXT32' len=33
  "__ZNSt14numeric_limitsIsE8digits10E"                                @3794   ; magicseg='TEXT32' len=35
  "__ZNSt14numeric_limitsIsE9is_signedE"                               @3795   ; magicseg='TEXT32' len=36
  "__ZNSt14numeric_limitsIsE10is_integerE"                             @3796   ; magicseg='TEXT32' len=38
  "__ZNSt14numeric_limitsIsE8is_exactE"                                @3797   ; magicseg='TEXT32' len=35
  "__ZNSt14numeric_limitsIsE5radixE"                                   @3798   ; magicseg='TEXT32' len=32
  "__ZNSt14numeric_limitsIsE12min_exponentE"                           @3799   ; magicseg='TEXT32' len=40
  "__ZNSt14numeric_limitsIsE14min_exponent10E"                         @3800   ; magicseg='TEXT32' len=42
  "__ZNSt14numeric_limitsIsE12max_exponentE"                           @3801   ; magicseg='TEXT32' len=40
  "__ZNSt14numeric_limitsIsE14max_exponent10E"                         @3802   ; magicseg='TEXT32' len=42
  "__ZNSt14numeric_limitsIsE12has_infinityE"                           @3803   ; magicseg='TEXT32' len=40
  "__ZNSt14numeric_limitsIsE13has_quiet_NaNE"                          @3804   ; magicseg='TEXT32' len=41
  "__ZNSt14numeric_limitsIsE17has_signaling_NaNE"                      @3805   ; magicseg='TEXT32' len=45
  "__ZNSt14numeric_limitsIsE10has_denormE"                             @3806   ; magicseg='TEXT32' len=38
  "__ZNSt14numeric_limitsIsE15has_denorm_lossE"                        @3807   ; magicseg='TEXT32' len=43
  "__ZNSt14numeric_limitsIsE9is_iec559E"                               @3808   ; magicseg='TEXT32' len=36
  "__ZNSt14numeric_limitsIsE10is_boundedE"                             @3809   ; magicseg='TEXT32' len=38
  "__ZNSt14numeric_limitsIsE9is_moduloE"                               @3810   ; magicseg='TEXT32' len=36
  "__ZNSt14numeric_limitsIsE5trapsE"                                   @3811   ; magicseg='TEXT32' len=32
  "__ZNSt14numeric_limitsIsE15tinyness_beforeE"                        @3812   ; magicseg='TEXT32' len=43
  "__ZNSt14numeric_limitsIsE11round_styleE"                            @3813   ; magicseg='TEXT32' len=39
  "__ZNSt14numeric_limitsItE14is_specializedE"                         @3814   ; magicseg='TEXT32' len=42
  "__ZNSt14numeric_limitsItE6digitsE"                                  @3815   ; magicseg='TEXT32' len=33
  "__ZNSt14numeric_limitsItE8digits10E"                                @3816   ; magicseg='TEXT32' len=35
  "__ZNSt14numeric_limitsItE9is_signedE"                               @3817   ; magicseg='TEXT32' len=36
  "__ZNSt14numeric_limitsItE10is_integerE"                             @3818   ; magicseg='TEXT32' len=38
  "__ZNSt14numeric_limitsItE8is_exactE"                                @3819   ; magicseg='TEXT32' len=35
  "__ZNSt14numeric_limitsItE5radixE"                                   @3820   ; magicseg='TEXT32' len=32
  "__ZNSt14numeric_limitsItE12min_exponentE"                           @3821   ; magicseg='TEXT32' len=40
  "__ZNSt14numeric_limitsItE14min_exponent10E"                         @3822   ; magicseg='TEXT32' len=42
  "__ZNSt14numeric_limitsItE12max_exponentE"                           @3823   ; magicseg='TEXT32' len=40
  "__ZNSt14numeric_limitsItE14max_exponent10E"                         @3824   ; magicseg='TEXT32' len=42
  "__ZNSt14numeric_limitsItE12has_infinityE"                           @3825   ; magicseg='TEXT32' len=40
  "__ZNSt14numeric_limitsItE13has_quiet_NaNE"                          @3826   ; magicseg='TEXT32' len=41
  "__ZNSt14numeric_limitsItE17has_signaling_NaNE"                      @3827   ; magicseg='TEXT32' len=45
  "__ZNSt14numeric_limitsItE10has_denormE"                             @3828   ; magicseg='TEXT32' len=38
  "__ZNSt14numeric_limitsItE15has_denorm_lossE"                        @3829   ; magicseg='TEXT32' len=43
  "__ZNSt14numeric_limitsItE9is_iec559E"                               @3830   ; magicseg='TEXT32' len=36
  "__ZNSt14numeric_limitsItE10is_boundedE"                             @3831   ; magicseg='TEXT32' len=38
  "__ZNSt14numeric_limitsItE9is_moduloE"                               @3832   ; magicseg='TEXT32' len=36
  "__ZNSt14numeric_limitsItE5trapsE"                                   @3833   ; magicseg='TEXT32' len=32
  "__ZNSt14numeric_limitsItE15tinyness_beforeE"                        @3834   ; magicseg='TEXT32' len=43
  "__ZNSt14numeric_limitsItE11round_styleE"                            @3835   ; magicseg='TEXT32' len=39
  "__ZNSt14numeric_limitsIiE14is_specializedE"                         @3836   ; magicseg='TEXT32' len=42
  "__ZNSt14numeric_limitsIiE6digitsE"                                  @3837   ; magicseg='TEXT32' len=33
  "__ZNSt14numeric_limitsIiE8digits10E"                                @3838   ; magicseg='TEXT32' len=35
  "__ZNSt14numeric_limitsIiE9is_signedE"                               @3839   ; magicseg='TEXT32' len=36
  "__ZNSt14numeric_limitsIiE10is_integerE"                             @3840   ; magicseg='TEXT32' len=38
  "__ZNSt14numeric_limitsIiE8is_exactE"                                @3841   ; magicseg='TEXT32' len=35
  "__ZNSt14numeric_limitsIiE5radixE"                                   @3842   ; magicseg='TEXT32' len=32
  "__ZNSt14numeric_limitsIiE12min_exponentE"                           @3843   ; magicseg='TEXT32' len=40
  "__ZNSt14numeric_limitsIiE14min_exponent10E"                         @3844   ; magicseg='TEXT32' len=42
  "__ZNSt14numeric_limitsIiE12max_exponentE"                           @3845   ; magicseg='TEXT32' len=40
  "__ZNSt14numeric_limitsIiE14max_exponent10E"                         @3846   ; magicseg='TEXT32' len=42
  "__ZNSt14numeric_limitsIiE12has_infinityE"                           @3847   ; magicseg='TEXT32' len=40
  "__ZNSt14numeric_limitsIiE13has_quiet_NaNE"                          @3848   ; magicseg='TEXT32' len=41
  "__ZNSt14numeric_limitsIiE17has_signaling_NaNE"                      @3849   ; magicseg='TEXT32' len=45
  "__ZNSt14numeric_limitsIiE10has_denormE"                             @3850   ; magicseg='TEXT32' len=38
  "__ZNSt14numeric_limitsIiE15has_denorm_lossE"                        @3851   ; magicseg='TEXT32' len=43
  "__ZNSt14numeric_limitsIiE9is_iec559E"                               @3852   ; magicseg='TEXT32' len=36
  "__ZNSt14numeric_limitsIiE10is_boundedE"                             @3853   ; magicseg='TEXT32' len=38
  "__ZNSt14numeric_limitsIiE9is_moduloE"                               @3854   ; magicseg='TEXT32' len=36
  "__ZNSt14numeric_limitsIiE5trapsE"                                   @3855   ; magicseg='TEXT32' len=32
  "__ZNSt14numeric_limitsIiE15tinyness_beforeE"                        @3856   ; magicseg='TEXT32' len=43
  "__ZNSt14numeric_limitsIiE11round_styleE"                            @3857   ; magicseg='TEXT32' len=39
  "__ZNSt14numeric_limitsIjE14is_specializedE"                         @3858   ; magicseg='TEXT32' len=42
  "__ZNSt14numeric_limitsIjE6digitsE"                                  @3859   ; magicseg='TEXT32' len=33
  "__ZNSt14numeric_limitsIjE8digits10E"                                @3860   ; magicseg='TEXT32' len=35
  "__ZNSt14numeric_limitsIjE9is_signedE"                               @3861   ; magicseg='TEXT32' len=36
  "__ZNSt14numeric_limitsIjE10is_integerE"                             @3862   ; magicseg='TEXT32' len=38
  "__ZNSt14numeric_limitsIjE8is_exactE"                                @3863   ; magicseg='TEXT32' len=35
  "__ZNSt14numeric_limitsIjE5radixE"                                   @3864   ; magicseg='TEXT32' len=32
  "__ZNSt14numeric_limitsIjE12min_exponentE"                           @3865   ; magicseg='TEXT32' len=40
  "__ZNSt14numeric_limitsIjE14min_exponent10E"                         @3866   ; magicseg='TEXT32' len=42
  "__ZNSt14numeric_limitsIjE12max_exponentE"                           @3867   ; magicseg='TEXT32' len=40
  "__ZNSt14numeric_limitsIjE14max_exponent10E"                         @3868   ; magicseg='TEXT32' len=42
  "__ZNSt14numeric_limitsIjE12has_infinityE"                           @3869   ; magicseg='TEXT32' len=40
  "__ZNSt14numeric_limitsIjE13has_quiet_NaNE"                          @3870   ; magicseg='TEXT32' len=41
  "__ZNSt14numeric_limitsIjE17has_signaling_NaNE"                      @3871   ; magicseg='TEXT32' len=45
  "__ZNSt14numeric_limitsIjE10has_denormE"                             @3872   ; magicseg='TEXT32' len=38
  "__ZNSt14numeric_limitsIjE15has_denorm_lossE"                        @3873   ; magicseg='TEXT32' len=43
  "__ZNSt14numeric_limitsIjE9is_iec559E"                               @3874   ; magicseg='TEXT32' len=36
  "__ZNSt14numeric_limitsIjE10is_boundedE"                             @3875   ; magicseg='TEXT32' len=38
  "__ZNSt14numeric_limitsIjE9is_moduloE"                               @3876   ; magicseg='TEXT32' len=36
  "__ZNSt14numeric_limitsIjE5trapsE"                                   @3877   ; magicseg='TEXT32' len=32
  "__ZNSt14numeric_limitsIjE15tinyness_beforeE"                        @3878   ; magicseg='TEXT32' len=43
  "__ZNSt14numeric_limitsIjE11round_styleE"                            @3879   ; magicseg='TEXT32' len=39
  "__ZNSt14numeric_limitsIlE14is_specializedE"                         @3880   ; magicseg='TEXT32' len=42
  "__ZNSt14numeric_limitsIlE6digitsE"                                  @3881   ; magicseg='TEXT32' len=33
  "__ZNSt14numeric_limitsIlE8digits10E"                                @3882   ; magicseg='TEXT32' len=35
  "__ZNSt14numeric_limitsIlE9is_signedE"                               @3883   ; magicseg='TEXT32' len=36
  "__ZNSt14numeric_limitsIlE10is_integerE"                             @3884   ; magicseg='TEXT32' len=38
  "__ZNSt14numeric_limitsIlE8is_exactE"                                @3885   ; magicseg='TEXT32' len=35
  "__ZNSt14numeric_limitsIlE5radixE"                                   @3886   ; magicseg='TEXT32' len=32
  "__ZNSt14numeric_limitsIlE12min_exponentE"                           @3887   ; magicseg='TEXT32' len=40
  "__ZNSt14numeric_limitsIlE14min_exponent10E"                         @3888   ; magicseg='TEXT32' len=42
  "__ZNSt14numeric_limitsIlE12max_exponentE"                           @3889   ; magicseg='TEXT32' len=40
  "__ZNSt14numeric_limitsIlE14max_exponent10E"                         @3890   ; magicseg='TEXT32' len=42
  "__ZNSt14numeric_limitsIlE12has_infinityE"                           @3891   ; magicseg='TEXT32' len=40
  "__ZNSt14numeric_limitsIlE13has_quiet_NaNE"                          @3892   ; magicseg='TEXT32' len=41
  "__ZNSt14numeric_limitsIlE17has_signaling_NaNE"                      @3893   ; magicseg='TEXT32' len=45
  "__ZNSt14numeric_limitsIlE10has_denormE"                             @3894   ; magicseg='TEXT32' len=38
  "__ZNSt14numeric_limitsIlE15has_denorm_lossE"                        @3895   ; magicseg='TEXT32' len=43
  "__ZNSt14numeric_limitsIlE9is_iec559E"                               @3896   ; magicseg='TEXT32' len=36
  "__ZNSt14numeric_limitsIlE10is_boundedE"                             @3897   ; magicseg='TEXT32' len=38
  "__ZNSt14numeric_limitsIlE9is_moduloE"                               @3898   ; magicseg='TEXT32' len=36
  "__ZNSt14numeric_limitsIlE5trapsE"                                   @3899   ; magicseg='TEXT32' len=32
  "__ZNSt14numeric_limitsIlE15tinyness_beforeE"                        @3900   ; magicseg='TEXT32' len=43
  "__ZNSt14numeric_limitsIlE11round_styleE"                            @3901   ; magicseg='TEXT32' len=39
  "__ZNSt14numeric_limitsImE14is_specializedE"                         @3902   ; magicseg='TEXT32' len=42
  "__ZNSt14numeric_limitsImE6digitsE"                                  @3903   ; magicseg='TEXT32' len=33
  "__ZNSt14numeric_limitsImE8digits10E"                                @3904   ; magicseg='TEXT32' len=35
  "__ZNSt14numeric_limitsImE9is_signedE"                               @3905   ; magicseg='TEXT32' len=36
  "__ZNSt14numeric_limitsImE10is_integerE"                             @3906   ; magicseg='TEXT32' len=38
  "__ZNSt14numeric_limitsImE8is_exactE"                                @3907   ; magicseg='TEXT32' len=35
  "__ZNSt14numeric_limitsImE5radixE"                                   @3908   ; magicseg='TEXT32' len=32
  "__ZNSt14numeric_limitsImE12min_exponentE"                           @3909   ; magicseg='TEXT32' len=40
  "__ZNSt14numeric_limitsImE14min_exponent10E"                         @3910   ; magicseg='TEXT32' len=42
  "__ZNSt14numeric_limitsImE12max_exponentE"                           @3911   ; magicseg='TEXT32' len=40
  "__ZNSt14numeric_limitsImE14max_exponent10E"                         @3912   ; magicseg='TEXT32' len=42
  "__ZNSt14numeric_limitsImE12has_infinityE"                           @3913   ; magicseg='TEXT32' len=40
  "__ZNSt14numeric_limitsImE13has_quiet_NaNE"                          @3914   ; magicseg='TEXT32' len=41
  "__ZNSt14numeric_limitsImE17has_signaling_NaNE"                      @3915   ; magicseg='TEXT32' len=45
  "__ZNSt14numeric_limitsImE10has_denormE"                             @3916   ; magicseg='TEXT32' len=38
  "__ZNSt14numeric_limitsImE15has_denorm_lossE"                        @3917   ; magicseg='TEXT32' len=43
  "__ZNSt14numeric_limitsImE9is_iec559E"                               @3918   ; magicseg='TEXT32' len=36
  "__ZNSt14numeric_limitsImE10is_boundedE"                             @3919   ; magicseg='TEXT32' len=38
  "__ZNSt14numeric_limitsImE9is_moduloE"                               @3920   ; magicseg='TEXT32' len=36
  "__ZNSt14numeric_limitsImE5trapsE"                                   @3921   ; magicseg='TEXT32' len=32
  "__ZNSt14numeric_limitsImE15tinyness_beforeE"                        @3922   ; magicseg='TEXT32' len=43
  "__ZNSt14numeric_limitsImE11round_styleE"                            @3923   ; magicseg='TEXT32' len=39
  "__ZNSt14numeric_limitsIxE14is_specializedE"                         @3924   ; magicseg='TEXT32' len=42
  "__ZNSt14numeric_limitsIxE6digitsE"                                  @3925   ; magicseg='TEXT32' len=33
  "__ZNSt14numeric_limitsIxE8digits10E"                                @3926   ; magicseg='TEXT32' len=35
  "__ZNSt14numeric_limitsIxE9is_signedE"                               @3927   ; magicseg='TEXT32' len=36
  "__ZNSt14numeric_limitsIxE10is_integerE"                             @3928   ; magicseg='TEXT32' len=38
  "__ZNSt14numeric_limitsIxE8is_exactE"                                @3929   ; magicseg='TEXT32' len=35
  "__ZNSt14numeric_limitsIxE5radixE"                                   @3930   ; magicseg='TEXT32' len=32
  "__ZNSt14numeric_limitsIxE12min_exponentE"                           @3931   ; magicseg='TEXT32' len=40
  "__ZNSt14numeric_limitsIxE14min_exponent10E"                         @3932   ; magicseg='TEXT32' len=42
  "__ZNSt14numeric_limitsIxE12max_exponentE"                           @3933   ; magicseg='TEXT32' len=40
  "__ZNSt14numeric_limitsIxE14max_exponent10E"                         @3934   ; magicseg='TEXT32' len=42
  "__ZNSt14numeric_limitsIxE12has_infinityE"                           @3935   ; magicseg='TEXT32' len=40
  "__ZNSt14numeric_limitsIxE13has_quiet_NaNE"                          @3936   ; magicseg='TEXT32' len=41
  "__ZNSt14numeric_limitsIxE17has_signaling_NaNE"                      @3937   ; magicseg='TEXT32' len=45
  "__ZNSt14numeric_limitsIxE10has_denormE"                             @3938   ; magicseg='TEXT32' len=38
  "__ZNSt14numeric_limitsIxE15has_denorm_lossE"                        @3939   ; magicseg='TEXT32' len=43
  "__ZNSt14numeric_limitsIxE9is_iec559E"                               @3940   ; magicseg='TEXT32' len=36
  "__ZNSt14numeric_limitsIxE10is_boundedE"                             @3941   ; magicseg='TEXT32' len=38
  "__ZNSt14numeric_limitsIxE9is_moduloE"                               @3942   ; magicseg='TEXT32' len=36
  "__ZNSt14numeric_limitsIxE5trapsE"                                   @3943   ; magicseg='TEXT32' len=32
  "__ZNSt14numeric_limitsIxE15tinyness_beforeE"                        @3944   ; magicseg='TEXT32' len=43
  "__ZNSt14numeric_limitsIxE11round_styleE"                            @3945   ; magicseg='TEXT32' len=39
  "__ZNSt14numeric_limitsIyE14is_specializedE"                         @3946   ; magicseg='TEXT32' len=42
  "__ZNSt14numeric_limitsIyE6digitsE"                                  @3947   ; magicseg='TEXT32' len=33
  "__ZNSt14numeric_limitsIyE8digits10E"                                @3948   ; magicseg='TEXT32' len=35
  "__ZNSt14numeric_limitsIyE9is_signedE"                               @3949   ; magicseg='TEXT32' len=36
  "__ZNSt14numeric_limitsIyE10is_integerE"                             @3950   ; magicseg='TEXT32' len=38
  "__ZNSt14numeric_limitsIyE8is_exactE"                                @3951   ; magicseg='TEXT32' len=35
  "__ZNSt14numeric_limitsIyE5radixE"                                   @3952   ; magicseg='TEXT32' len=32
  "__ZNSt14numeric_limitsIyE12min_exponentE"                           @3953   ; magicseg='TEXT32' len=40
  "__ZNSt14numeric_limitsIyE14min_exponent10E"                         @3954   ; magicseg='TEXT32' len=42
  "__ZNSt14numeric_limitsIyE12max_exponentE"                           @3955   ; magicseg='TEXT32' len=40
  "__ZNSt14numeric_limitsIyE14max_exponent10E"                         @3956   ; magicseg='TEXT32' len=42
  "__ZNSt14numeric_limitsIyE12has_infinityE"                           @3957   ; magicseg='TEXT32' len=40
  "__ZNSt14numeric_limitsIyE13has_quiet_NaNE"                          @3958   ; magicseg='TEXT32' len=41
  "__ZNSt14numeric_limitsIyE17has_signaling_NaNE"                      @3959   ; magicseg='TEXT32' len=45
  "__ZNSt14numeric_limitsIyE10has_denormE"                             @3960   ; magicseg='TEXT32' len=38
  "__ZNSt14numeric_limitsIyE15has_denorm_lossE"                        @3961   ; magicseg='TEXT32' len=43
  "__ZNSt14numeric_limitsIyE9is_iec559E"                               @3962   ; magicseg='TEXT32' len=36
  "__ZNSt14numeric_limitsIyE10is_boundedE"                             @3963   ; magicseg='TEXT32' len=38
  "__ZNSt14numeric_limitsIyE9is_moduloE"                               @3964   ; magicseg='TEXT32' len=36
  "__ZNSt14numeric_limitsIyE5trapsE"                                   @3965   ; magicseg='TEXT32' len=32
  "__ZNSt14numeric_limitsIyE15tinyness_beforeE"                        @3966   ; magicseg='TEXT32' len=43
  "__ZNSt14numeric_limitsIyE11round_styleE"                            @3967   ; magicseg='TEXT32' len=39
  "__ZNSt14numeric_limitsIfE14is_specializedE"                         @3968   ; magicseg='TEXT32' len=42
  "__ZNSt14numeric_limitsIfE6digitsE"                                  @3969   ; magicseg='TEXT32' len=33
  "__ZNSt14numeric_limitsIfE8digits10E"                                @3970   ; magicseg='TEXT32' len=35
  "__ZNSt14numeric_limitsIfE9is_signedE"                               @3971   ; magicseg='TEXT32' len=36
  "__ZNSt14numeric_limitsIfE10is_integerE"                             @3972   ; magicseg='TEXT32' len=38
  "__ZNSt14numeric_limitsIfE8is_exactE"                                @3973   ; magicseg='TEXT32' len=35
  "__ZNSt14numeric_limitsIfE5radixE"                                   @3974   ; magicseg='TEXT32' len=32
  "__ZNSt14numeric_limitsIfE12min_exponentE"                           @3975   ; magicseg='TEXT32' len=40
  "__ZNSt14numeric_limitsIfE14min_exponent10E"                         @3976   ; magicseg='TEXT32' len=42
  "__ZNSt14numeric_limitsIfE12max_exponentE"                           @3977   ; magicseg='TEXT32' len=40
  "__ZNSt14numeric_limitsIfE14max_exponent10E"                         @3978   ; magicseg='TEXT32' len=42
  "__ZNSt14numeric_limitsIfE12has_infinityE"                           @3979   ; magicseg='TEXT32' len=40
  "__ZNSt14numeric_limitsIfE13has_quiet_NaNE"                          @3980   ; magicseg='TEXT32' len=41
  "__ZNSt14numeric_limitsIfE17has_signaling_NaNE"                      @3981   ; magicseg='TEXT32' len=45
  "__ZNSt14numeric_limitsIfE10has_denormE"                             @3982   ; magicseg='TEXT32' len=38
  "__ZNSt14numeric_limitsIfE15has_denorm_lossE"                        @3983   ; magicseg='TEXT32' len=43
  "__ZNSt14numeric_limitsIfE9is_iec559E"                               @3984   ; magicseg='TEXT32' len=36
  "__ZNSt14numeric_limitsIfE10is_boundedE"                             @3985   ; magicseg='TEXT32' len=38
  "__ZNSt14numeric_limitsIfE9is_moduloE"                               @3986   ; magicseg='TEXT32' len=36
  "__ZNSt14numeric_limitsIfE5trapsE"                                   @3987   ; magicseg='TEXT32' len=32
  "__ZNSt14numeric_limitsIfE15tinyness_beforeE"                        @3988   ; magicseg='TEXT32' len=43
  "__ZNSt14numeric_limitsIfE11round_styleE"                            @3989   ; magicseg='TEXT32' len=39
  "__ZNSt14numeric_limitsIdE14is_specializedE"                         @3990   ; magicseg='TEXT32' len=42
  "__ZNSt14numeric_limitsIdE6digitsE"                                  @3991   ; magicseg='TEXT32' len=33
  "__ZNSt14numeric_limitsIdE8digits10E"                                @3992   ; magicseg='TEXT32' len=35
  "__ZNSt14numeric_limitsIdE9is_signedE"                               @3993   ; magicseg='TEXT32' len=36
  "__ZNSt14numeric_limitsIdE10is_integerE"                             @3994   ; magicseg='TEXT32' len=38
  "__ZNSt14numeric_limitsIdE8is_exactE"                                @3995   ; magicseg='TEXT32' len=35
  "__ZNSt14numeric_limitsIdE5radixE"                                   @3996   ; magicseg='TEXT32' len=32
  "__ZNSt14numeric_limitsIdE12min_exponentE"                           @3997   ; magicseg='TEXT32' len=40
  "__ZNSt14numeric_limitsIdE14min_exponent10E"                         @3998   ; magicseg='TEXT32' len=42
  "__ZNSt14numeric_limitsIdE12max_exponentE"                           @3999   ; magicseg='TEXT32' len=40
  "__ZNSt14numeric_limitsIdE14max_exponent10E"                         @4000   ; magicseg='TEXT32' len=42
  "__ZNSt14numeric_limitsIdE12has_infinityE"                           @4001   ; magicseg='TEXT32' len=40
  "__ZNSt14numeric_limitsIdE13has_quiet_NaNE"                          @4002   ; magicseg='TEXT32' len=41
  "__ZNSt14numeric_limitsIdE17has_signaling_NaNE"                      @4003   ; magicseg='TEXT32' len=45
  "__ZNSt14numeric_limitsIdE10has_denormE"                             @4004   ; magicseg='TEXT32' len=38
  "__ZNSt14numeric_limitsIdE15has_denorm_lossE"                        @4005   ; magicseg='TEXT32' len=43
  "__ZNSt14numeric_limitsIdE9is_iec559E"                               @4006   ; magicseg='TEXT32' len=36
  "__ZNSt14numeric_limitsIdE10is_boundedE"                             @4007   ; magicseg='TEXT32' len=38
  "__ZNSt14numeric_limitsIdE9is_moduloE"                               @4008   ; magicseg='TEXT32' len=36
  "__ZNSt14numeric_limitsIdE5trapsE"                                   @4009   ; magicseg='TEXT32' len=32
  "__ZNSt14numeric_limitsIdE15tinyness_beforeE"                        @4010   ; magicseg='TEXT32' len=43
  "__ZNSt14numeric_limitsIdE11round_styleE"                            @4011   ; magicseg='TEXT32' len=39
  "__ZNSt14numeric_limitsIeE14is_specializedE"                         @4012   ; magicseg='TEXT32' len=42
  "__ZNSt14numeric_limitsIeE6digitsE"                                  @4013   ; magicseg='TEXT32' len=33
  "__ZNSt14numeric_limitsIeE8digits10E"                                @4014   ; magicseg='TEXT32' len=35
  "__ZNSt14numeric_limitsIeE9is_signedE"                               @4015   ; magicseg='TEXT32' len=36
  "__ZNSt14numeric_limitsIeE10is_integerE"                             @4016   ; magicseg='TEXT32' len=38
  "__ZNSt14numeric_limitsIeE8is_exactE"                                @4017   ; magicseg='TEXT32' len=35
  "__ZNSt14numeric_limitsIeE5radixE"                                   @4018   ; magicseg='TEXT32' len=32
  "__ZNSt14numeric_limitsIeE12min_exponentE"                           @4019   ; magicseg='TEXT32' len=40
  "__ZNSt14numeric_limitsIeE14min_exponent10E"                         @4020   ; magicseg='TEXT32' len=42
  "__ZNSt14numeric_limitsIeE12max_exponentE"                           @4021   ; magicseg='TEXT32' len=40
  "__ZNSt14numeric_limitsIeE14max_exponent10E"                         @4022   ; magicseg='TEXT32' len=42
  "__ZNSt14numeric_limitsIeE12has_infinityE"                           @4023   ; magicseg='TEXT32' len=40
  "__ZNSt14numeric_limitsIeE13has_quiet_NaNE"                          @4024   ; magicseg='TEXT32' len=41
  "__ZNSt14numeric_limitsIeE17has_signaling_NaNE"                      @4025   ; magicseg='TEXT32' len=45
  "__ZNSt14numeric_limitsIeE10has_denormE"                             @4026   ; magicseg='TEXT32' len=38
  "__ZNSt14numeric_limitsIeE15has_denorm_lossE"                        @4027   ; magicseg='TEXT32' len=43
  "__ZNSt14numeric_limitsIeE9is_iec559E"                               @4028   ; magicseg='TEXT32' len=36
  "__ZNSt14numeric_limitsIeE10is_boundedE"                             @4029   ; magicseg='TEXT32' len=38
  "__ZNSt14numeric_limitsIeE9is_moduloE"                               @4030   ; magicseg='TEXT32' len=36
  "__ZNSt14numeric_limitsIeE5trapsE"                                   @4031   ; magicseg='TEXT32' len=32
  "__ZNSt14numeric_limitsIeE15tinyness_beforeE"                        @4032   ; magicseg='TEXT32' len=43
  "__ZNSt14numeric_limitsIeE11round_styleE"                            @4033   ; magicseg='TEXT32' len=39
  "__ZNSt6locale4noneE"                                                @4034   ; magicseg='TEXT32' len=19
  "__ZNSt6locale5ctypeE"                                               @4035   ; magicseg='TEXT32' len=20
  "__ZNSt6locale7numericE"                                             @4036   ; magicseg='TEXT32' len=22
  "__ZNSt6locale7collateE"                                             @4037   ; magicseg='TEXT32' len=22
  "__ZNSt6locale4timeE"                                                @4038   ; magicseg='TEXT32' len=19
  "__ZNSt6locale8monetaryE"                                            @4039   ; magicseg='TEXT32' len=23
  "__ZNSt6locale8messagesE"                                            @4040   ; magicseg='TEXT32' len=23
  "__ZNSt6locale3allE"                                                 @4041   ; magicseg='TEXT32' len=18
  "__ZNSt6locale18_S_categories_sizeE"                                 @4042   ; magicseg='TEXT32' len=34
  "__ZNSt6locale24_S_extra_categories_sizeE"                           @4043   ; magicseg='TEXT32' len=40
  "__ZNSt6locale5_Impl11_S_id_ctypeE"                                  @4044   ; magicseg='TEXT32' len=33
  "__ZNSt6locale5_Impl13_S_id_numericE"                                @4045   ; magicseg='TEXT32' len=35
  "__ZNSt6locale5_Impl13_S_id_collateE"                                @4046   ; magicseg='TEXT32' len=35
  "__ZNSt6locale5_Impl10_S_id_timeE"                                   @4047   ; magicseg='TEXT32' len=32
  "__ZNSt6locale5_Impl14_S_id_monetaryE"                               @4048   ; magicseg='TEXT32' len=36
  "__ZNSt6locale5_Impl14_S_id_messagesE"                               @4049   ; magicseg='TEXT32' len=36
  "__ZNSt6locale5_Impl19_S_facet_categoriesE"                          @4050   ; magicseg='TEXT32' len=41
  "__ZNSt6localeC2Ev"                                                  @4051   ; magicseg='TEXT32' len=17
  "__ZNSt6locale7classicEv"                                            @4052   ; magicseg='TEXT32' len=23
  "__ZNSt6localeC1Ev"                                                  @4053   ; magicseg='TEXT32' len=17
  "__ZNSt6localeC2ERKS_"                                               @4054   ; magicseg='TEXT32' len=20
  "__ZNSt6localeC1ERKS_"                                               @4055   ; magicseg='TEXT32' len=20
  "__ZNSt6localeC2EPNS_5_ImplE"                                        @4056   ; magicseg='TEXT32' len=27
  "__ZNSt6localeC1EPNS_5_ImplE"                                        @4057   ; magicseg='TEXT32' len=27
  "__ZNSt6localeC2EPKc"                                                @4058   ; magicseg='TEXT32' len=19
  "__ZNSt6localeC1EPKc"                                                @4059   ; magicseg='TEXT32' len=19
  "__ZNSt6localeC2ERKS_PKcj"                                           @4060   ; magicseg='TEXT32' len=24
  "__ZNSt6locale11_M_coalesceERKS_S1_j"                                @4061   ; magicseg='TEXT32' len=35
  "__ZNSt6localeD1Ev"                                                  @4062   ; magicseg='TEXT32' len=17
  "__ZNSt6localeC1ERKS_PKcj"                                           @4063   ; magicseg='TEXT32' len=24
  "__ZNSt6localeC2ERKS_S1_j"                                           @4064   ; magicseg='TEXT32' len=24
  "__ZNSt6localeC1ERKS_S1_j"                                           @4065   ; magicseg='TEXT32' len=24
  "__ZNSt6localeD2Ev"                                                  @4066   ; magicseg='TEXT32' len=17
  "__ZNKSt6localeeqERKS_"                                              @4067   ; magicseg='TEXT32' len=21
  "__ZNKSt6locale4nameEv"                                              @4068   ; magicseg='TEXT32' len=21
  "__ZNSt6localeaSERKS_"                                               @4069   ; magicseg='TEXT32' len=20
  "__ZNSt6locale6globalERKS_"                                          @4070   ; magicseg='TEXT32' len=25
  "__ZNSt6locale21_S_normalize_categoryEj"                             @4071   ; magicseg='TEXT32' len=38
  "__ZNSt6locale5facetD2Ev"                                            @4072   ; magicseg='TEXT32' len=23
  "__ZTVNSt6locale5facetE"                                             @4073   ; magicseg='TEXT32' len=22
  "__ZNSt6locale5facetD1Ev"                                            @4074   ; magicseg='TEXT32' len=23
  "__ZNSt6locale5facetD0Ev"                                            @4075   ; magicseg='TEXT32' len=23
  "__ZNSt6locale5facetC2Ej"                                            @4076   ; magicseg='TEXT32' len=23
  "__ZNSt6locale5facetC1Ej"                                            @4077   ; magicseg='TEXT32' len=23
  "__ZNSt6locale5facet16_M_add_referenceEv"                            @4078   ; magicseg='TEXT32' len=39
  "__ZNSt6locale5facet19_M_remove_referenceEv"                         @4079   ; magicseg='TEXT32' len=42
  "__ZNSt6locale2idC2Ev"                                               @4080   ; magicseg='TEXT32' len=20
  "__ZNSt6locale2idC1Ev"                                               @4081   ; magicseg='TEXT32' len=20
  "__ZNSt10money_base18_S_default_patternE"                            @4082   ; magicseg='TEXT32' len=39
  "__ZNSt10__num_base15_S_format_floatERKSt8ios_basePcci"              @4083   ; magicseg='TEXT32' len=53
  "__ZNSt10__num_base13_S_format_intERKSt8ios_basePccc"                @4084   ; magicseg='TEXT32' len=51
  "__ZNSt10moneypunctIcLb0EEC2Ej"                                      @4085   ; magicseg='TEXT32' len=29
  "__ZTVSt10moneypunctIcLb0EE"                                         @4086   ; magicseg='TEXT32' len=26
  "__ZNSt10moneypunctIcLb0EEC1Ej"                                      @4087   ; magicseg='TEXT32' len=29
  "__ZNSt10moneypunctIcLb0EEC2EPiPKcj"                                 @4088   ; magicseg='TEXT32' len=34
  "__ZNSt10moneypunctIcLb0EEC1EPiPKcj"                                 @4089   ; magicseg='TEXT32' len=34
  "__ZNKSt10moneypunctIcLb0EE16do_decimal_pointEv"                     @4090   ; magicseg='TEXT32' len=46
  "__ZNKSt10moneypunctIcLb0EE13decimal_pointEv"                        @4091   ; magicseg='TEXT32' len=43
  "__ZNKSt10moneypunctIcLb0EE16do_thousands_sepEv"                     @4092   ; magicseg='TEXT32' len=46
  "__ZNKSt10moneypunctIcLb0EE13thousands_sepEv"                        @4093   ; magicseg='TEXT32' len=43
  "__ZNKSt10moneypunctIcLb0EE11do_groupingEv"                          @4094   ; magicseg='TEXT32' len=41
  "__ZNKSt10moneypunctIcLb0EE8groupingEv"                              @4095   ; magicseg='TEXT32' len=37
  "__ZNKSt10moneypunctIcLb0EE14do_curr_symbolEv"                       @4096   ; magicseg='TEXT32' len=44
  "__ZNKSt10moneypunctIcLb0EE11curr_symbolEv"                          @4097   ; magicseg='TEXT32' len=41
  "__ZNKSt10moneypunctIcLb0EE16do_positive_signEv"                     @4098   ; magicseg='TEXT32' len=46
  "__ZNKSt10moneypunctIcLb0EE13positive_signEv"                        @4099   ; magicseg='TEXT32' len=43
  "__ZNKSt10moneypunctIcLb0EE16do_negative_signEv"                     @4100   ; magicseg='TEXT32' len=46
  "__ZNKSt10moneypunctIcLb0EE13negative_signEv"                        @4101   ; magicseg='TEXT32' len=43
  "__ZNKSt10moneypunctIcLb0EE14do_frac_digitsEv"                       @4102   ; magicseg='TEXT32' len=44
  "__ZNKSt10moneypunctIcLb0EE11frac_digitsEv"                          @4103   ; magicseg='TEXT32' len=41
  "__ZNKSt10moneypunctIcLb0EE13do_pos_formatEv"                        @4104   ; magicseg='TEXT32' len=43
  "__ZNKSt10moneypunctIcLb0EE10pos_formatEv"                           @4105   ; magicseg='TEXT32' len=40
  "__ZNKSt10moneypunctIcLb0EE13do_neg_formatEv"                        @4106   ; magicseg='TEXT32' len=43
  "__ZNKSt10moneypunctIcLb0EE10neg_formatEv"                           @4107   ; magicseg='TEXT32' len=40
  "__ZNSt10moneypunctIcLb1EEC2Ej"                                      @4108   ; magicseg='TEXT32' len=29
  "__ZTVSt10moneypunctIcLb1EE"                                         @4109   ; magicseg='TEXT32' len=26
  "__ZNSt10moneypunctIcLb1EEC1Ej"                                      @4110   ; magicseg='TEXT32' len=29
  "__ZNSt10moneypunctIcLb1EEC2EPiPKcj"                                 @4111   ; magicseg='TEXT32' len=34
  "__ZNSt10moneypunctIcLb1EEC1EPiPKcj"                                 @4112   ; magicseg='TEXT32' len=34
  "__ZNKSt10moneypunctIcLb1EE16do_decimal_pointEv"                     @4113   ; magicseg='TEXT32' len=46
  "__ZNKSt10moneypunctIcLb1EE13decimal_pointEv"                        @4114   ; magicseg='TEXT32' len=43
  "__ZNKSt10moneypunctIcLb1EE16do_thousands_sepEv"                     @4115   ; magicseg='TEXT32' len=46
  "__ZNKSt10moneypunctIcLb1EE13thousands_sepEv"                        @4116   ; magicseg='TEXT32' len=43
  "__ZNKSt10moneypunctIcLb1EE11do_groupingEv"                          @4117   ; magicseg='TEXT32' len=41
  "__ZNKSt10moneypunctIcLb1EE8groupingEv"                              @4118   ; magicseg='TEXT32' len=37
  "__ZNKSt10moneypunctIcLb1EE14do_curr_symbolEv"                       @4119   ; magicseg='TEXT32' len=44
  "__ZNKSt10moneypunctIcLb1EE11curr_symbolEv"                          @4120   ; magicseg='TEXT32' len=41
  "__ZNKSt10moneypunctIcLb1EE16do_positive_signEv"                     @4121   ; magicseg='TEXT32' len=46
  "__ZNKSt10moneypunctIcLb1EE13positive_signEv"                        @4122   ; magicseg='TEXT32' len=43
  "__ZNKSt10moneypunctIcLb1EE16do_negative_signEv"                     @4123   ; magicseg='TEXT32' len=46
  "__ZNKSt10moneypunctIcLb1EE13negative_signEv"                        @4124   ; magicseg='TEXT32' len=43
  "__ZNKSt10moneypunctIcLb1EE14do_frac_digitsEv"                       @4125   ; magicseg='TEXT32' len=44
  "__ZNKSt10moneypunctIcLb1EE11frac_digitsEv"                          @4126   ; magicseg='TEXT32' len=41
  "__ZNKSt10moneypunctIcLb1EE13do_pos_formatEv"                        @4127   ; magicseg='TEXT32' len=43
  "__ZNKSt10moneypunctIcLb1EE10pos_formatEv"                           @4128   ; magicseg='TEXT32' len=40
  "__ZNKSt10moneypunctIcLb1EE13do_neg_formatEv"                        @4129   ; magicseg='TEXT32' len=43
  "__ZNKSt10moneypunctIcLb1EE10neg_formatEv"                           @4130   ; magicseg='TEXT32' len=40
  "__ZNSt17moneypunct_bynameIcLb0EEC2EPKcj"                            @4131   ; magicseg='TEXT32' len=39
  "__ZTVSt17moneypunct_bynameIcLb0EE"                                  @4132   ; magicseg='TEXT32' len=33
  "__ZNSt17moneypunct_bynameIcLb0EEC1EPKcj"                            @4133   ; magicseg='TEXT32' len=39
  "__ZNSt17moneypunct_bynameIcLb0EED2Ev"                               @4134   ; magicseg='TEXT32' len=36
  "__ZNSt17moneypunct_bynameIcLb0EED1Ev"                               @4135   ; magicseg='TEXT32' len=36
  "__ZNSt17moneypunct_bynameIcLb0EED0Ev"                               @4136   ; magicseg='TEXT32' len=36
  "__ZNSt17moneypunct_bynameIcLb1EEC2EPKcj"                            @4137   ; magicseg='TEXT32' len=39
  "__ZTVSt17moneypunct_bynameIcLb1EE"                                  @4138   ; magicseg='TEXT32' len=33
  "__ZNSt17moneypunct_bynameIcLb1EEC1EPKcj"                            @4139   ; magicseg='TEXT32' len=39
  "__ZNSt17moneypunct_bynameIcLb1EED2Ev"                               @4140   ; magicseg='TEXT32' len=36
  "__ZNSt17moneypunct_bynameIcLb1EED1Ev"                               @4141   ; magicseg='TEXT32' len=36
  "__ZNSt17moneypunct_bynameIcLb1EED0Ev"                               @4142   ; magicseg='TEXT32' len=36
  "__ZNSt9money_getIcSt19istreambuf_iteratorIcSt11char_traitsIcEEEC2Ej"                    @4143   ; magicseg='TEXT32' len=67
  "__ZTVSt9money_getIcSt19istreambuf_iteratorIcSt11char_traitsIcEEE"   @4144   ; magicseg='TEXT32' len=64
  "__ZNSt9money_getIcSt19istreambuf_iteratorIcSt11char_traitsIcEEEC1Ej"                    @4145   ; magicseg='TEXT32' len=67
  "__ZNKSt9money_getIcSt19istreambuf_iteratorIcSt11char_traitsIcEEE3getES3_S3_bRSt8ios_baseRSt12_Ios_IostateRe"          @4146   ; magicseg='TEXT32' len=107
  "__ZNKSt9money_getIcSt19istreambuf_iteratorIcSt11char_traitsIcEEE3getES3_S3_bRSt8ios_baseRSt12_Ios_IostateRSs"         @4147   ; magicseg='TEXT32' len=108
  "__ZNSt9money_getIcSt19istreambuf_iteratorIcSt11char_traitsIcEEED2Ev"                    @4148   ; magicseg='TEXT32' len=67
  "__ZNSt9money_getIcSt19istreambuf_iteratorIcSt11char_traitsIcEEED1Ev"                    @4149   ; magicseg='TEXT32' len=67
  "__ZNSt9money_getIcSt19istreambuf_iteratorIcSt11char_traitsIcEEED0Ev"                    @4150   ; magicseg='TEXT32' len=67
  "__ZNKSt9money_getIcSt19istreambuf_iteratorIcSt11char_traitsIcEEE6do_getES3_S3_bRSt8ios_baseRSt12_Ios_IostateRe"       @4151   ; magicseg='TEXT32' len=110
  "__ZNKSt9money_getIcSt19istreambuf_iteratorIcSt11char_traitsIcEEE6do_getES3_S3_bRSt8ios_baseRSt12_Ios_IostateRSs"      @4152   ; magicseg='TEXT32' len=111
  "__ZSt9use_facetISt10moneypunctIcLb1EEERKT_RKSt6locale"              @4153   ; magicseg='TEXT32' len=53
  "__ZSt9use_facetISt10moneypunctIcLb0EEERKT_RKSt6locale"              @4154   ; magicseg='TEXT32' len=53
  "__ZNKSt19istreambuf_iteratorIcSt11char_traitsIcEE6_M_getEv"         @4155   ; magicseg='TEXT32' len=58
  "__ZSt17__verify_groupingIcEbRKSbIT_St11char_traitsIS0_ESaIS0_EERS4_"                    @4156   ; magicseg='TEXT32' len=67
  "__ZNSt9money_putIcSt19ostreambuf_iteratorIcSt11char_traitsIcEEEC2Ej"                    @4157   ; magicseg='TEXT32' len=67
  "__ZTVSt9money_putIcSt19ostreambuf_iteratorIcSt11char_traitsIcEEE"   @4158   ; magicseg='TEXT32' len=64
  "__ZNSt9money_putIcSt19ostreambuf_iteratorIcSt11char_traitsIcEEEC1Ej"                    @4159   ; magicseg='TEXT32' len=67
  "__ZNKSt9money_putIcSt19ostreambuf_iteratorIcSt11char_traitsIcEEE3putES3_bRSt8ios_basece"                              @4160   ; magicseg='TEXT32' len=87
  "__ZNKSt9money_putIcSt19ostreambuf_iteratorIcSt11char_traitsIcEEE3putES3_bRSt8ios_basecRKSs"                           @4161   ; magicseg='TEXT32' len=90
  "__ZNSt9money_putIcSt19ostreambuf_iteratorIcSt11char_traitsIcEEED2Ev"                    @4162   ; magicseg='TEXT32' len=67
  "__ZNSt9money_putIcSt19ostreambuf_iteratorIcSt11char_traitsIcEEED1Ev"                    @4163   ; magicseg='TEXT32' len=67
  "__ZNSt9money_putIcSt19ostreambuf_iteratorIcSt11char_traitsIcEEED0Ev"                    @4164   ; magicseg='TEXT32' len=67
  "__ZNKSt9money_putIcSt19ostreambuf_iteratorIcSt11char_traitsIcEEE6do_putES3_bRSt8ios_basece"                           @4165   ; magicseg='TEXT32' len=90
  "__ZSt16__convert_from_vIeEiPciPKcT_RKPii"                           @4166   ; magicseg='TEXT32' len=40
  "__ZNKSt9money_putIcSt19ostreambuf_iteratorIcSt11char_traitsIcEEE6do_putES3_bRSt8ios_basecRKSs"                        @4167   ; magicseg='TEXT32' len=93
  "__ZSt14__add_groupingIcEPT_S1_S0_PKcS3_PKS0_S5_"                    @4168   ; magicseg='TEXT32' len=47
  "__ZNKSt8numpunctIcE16do_decimal_pointEv"                            @4169   ; magicseg='TEXT32' len=39
  "__ZNKSt8numpunctIcE13decimal_pointEv"                               @4170   ; magicseg='TEXT32' len=36
  "__ZNKSt8numpunctIcE16do_thousands_sepEv"                            @4171   ; magicseg='TEXT32' len=39
  "__ZNKSt8numpunctIcE13thousands_sepEv"                               @4172   ; magicseg='TEXT32' len=36
  "__ZNKSt8numpunctIcE12do_falsenameEv"                                @4173   ; magicseg='TEXT32' len=35
  "__ZNKSt8numpunctIcE9falsenameEv"                                    @4174   ; magicseg='TEXT32' len=31
  "__ZNKSt8numpunctIcE11do_truenameEv"                                 @4175   ; magicseg='TEXT32' len=34
  "__ZNKSt8numpunctIcE8truenameEv"                                     @4176   ; magicseg='TEXT32' len=30
  "__ZNKSt8numpunctIcE11do_groupingEv"                                 @4177   ; magicseg='TEXT32' len=34
  "__ZNKSt8numpunctIcE8groupingEv"                                     @4178   ; magicseg='TEXT32' len=30
  "__ZNSt14__locale_cacheISt8numpunctIcEEC2ERKSt6locale"               @4179   ; magicseg='TEXT32' len=52
  "__ZTVSt14__locale_cacheISt8numpunctIcEE"                            @4180   ; magicseg='TEXT32' len=39
  "__ZSt9has_facetISt8numpunctIcEEbRKSt6locale"                        @4181   ; magicseg='TEXT32' len=43
  "__ZSt9use_facetISt8numpunctIcEERKT_RKSt6locale"                     @4182   ; magicseg='TEXT32' len=46
  "__ZSt9has_facetISt5ctypeIcEEbRKSt6locale"                           @4183   ; magicseg='TEXT32' len=40
  "__ZTVSt19__locale_cache_base"                                       @4184   ; magicseg='TEXT32' len=28
  "__ZNSt14__locale_cacheISt8numpunctIcEEC1ERKSt6locale"               @4185   ; magicseg='TEXT32' len=52
  "__ZNSt14__locale_cacheISt8numpunctIcEEC2ERKSt6localeb"              @4186   ; magicseg='TEXT32' len=53
  "__ZNSt14__locale_cacheISt8numpunctIcEEC1ERKSt6localeb"              @4187   ; magicseg='TEXT32' len=53
  "__ZNSt14__locale_cacheISt8numpunctIcEED2Ev"                         @4188   ; magicseg='TEXT32' len=42
  "__ZNSt14__locale_cacheISt8numpunctIcEED1Ev"                         @4189   ; magicseg='TEXT32' len=42
  "__ZNSt14__locale_cacheISt8numpunctIcEED0Ev"                         @4190   ; magicseg='TEXT32' len=42
  "__ZNSt8numpunctIcEC2Ej"                                             @4191   ; magicseg='TEXT32' len=22
  "__ZTVSt8numpunctIcE"                                                @4192   ; magicseg='TEXT32' len=19
  "__ZNSt8numpunctIcEC1Ej"                                             @4193   ; magicseg='TEXT32' len=22
  "__ZNSt8numpunctIcEC2EPij"                                           @4194   ; magicseg='TEXT32' len=24
  "__ZNSt8numpunctIcEC1EPij"                                           @4195   ; magicseg='TEXT32' len=24
  "__ZNSt15numpunct_bynameIcEC2EPKcj"                                  @4196   ; magicseg='TEXT32' len=33
  "__ZTVSt15numpunct_bynameIcE"                                        @4197   ; magicseg='TEXT32' len=27
  "__ZNSt15numpunct_bynameIcEC1EPKcj"                                  @4198   ; magicseg='TEXT32' len=33
  "__ZNSt15numpunct_bynameIcED2Ev"                                     @4199   ; magicseg='TEXT32' len=30
  "__ZNSt15numpunct_bynameIcED1Ev"                                     @4200   ; magicseg='TEXT32' len=30
  "__ZNSt15numpunct_bynameIcED0Ev"                                     @4201   ; magicseg='TEXT32' len=30
  "__ZNSt7num_getIcSt19istreambuf_iteratorIcSt11char_traitsIcEEEC2Ej"                      @4202   ; magicseg='TEXT32' len=65
  "__ZTVSt7num_getIcSt19istreambuf_iteratorIcSt11char_traitsIcEEE"     @4203   ; magicseg='TEXT32' len=62
  "__ZNSt7num_getIcSt19istreambuf_iteratorIcSt11char_traitsIcEEEC1Ej"                      @4204   ; magicseg='TEXT32' len=65
  "__ZNKSt7num_getIcSt19istreambuf_iteratorIcSt11char_traitsIcEEE3getES3_S3_RSt8ios_baseRSt12_Ios_IostateRb"             @4205   ; magicseg='TEXT32' len=104
  "__ZNKSt7num_getIcSt19istreambuf_iteratorIcSt11char_traitsIcEEE3getES3_S3_RSt8ios_baseRSt12_Ios_IostateRl"             @4206   ; magicseg='TEXT32' len=104
  "__ZNKSt7num_getIcSt19istreambuf_iteratorIcSt11char_traitsIcEEE3getES3_S3_RSt8ios_baseRSt12_Ios_IostateRt"             @4207   ; magicseg='TEXT32' len=104
  "__ZNKSt7num_getIcSt19istreambuf_iteratorIcSt11char_traitsIcEEE3getES3_S3_RSt8ios_baseRSt12_Ios_IostateRj"             @4208   ; magicseg='TEXT32' len=104
  "__ZNKSt7num_getIcSt19istreambuf_iteratorIcSt11char_traitsIcEEE3getES3_S3_RSt8ios_baseRSt12_Ios_IostateRm"             @4209   ; magicseg='TEXT32' len=104
  "__ZNKSt7num_getIcSt19istreambuf_iteratorIcSt11char_traitsIcEEE3getES3_S3_RSt8ios_baseRSt12_Ios_IostateRx"             @4210   ; magicseg='TEXT32' len=104
  "__ZNKSt7num_getIcSt19istreambuf_iteratorIcSt11char_traitsIcEEE3getES3_S3_RSt8ios_baseRSt12_Ios_IostateRy"             @4211   ; magicseg='TEXT32' len=104
  "__ZNKSt7num_getIcSt19istreambuf_iteratorIcSt11char_traitsIcEEE3getES3_S3_RSt8ios_baseRSt12_Ios_IostateRf"             @4212   ; magicseg='TEXT32' len=104
  "__ZNKSt7num_getIcSt19istreambuf_iteratorIcSt11char_traitsIcEEE3getES3_S3_RSt8ios_baseRSt12_Ios_IostateRd"             @4213   ; magicseg='TEXT32' len=104
  "__ZNKSt7num_getIcSt19istreambuf_iteratorIcSt11char_traitsIcEEE3getES3_S3_RSt8ios_baseRSt12_Ios_IostateRe"             @4214   ; magicseg='TEXT32' len=104
  "__ZNKSt7num_getIcSt19istreambuf_iteratorIcSt11char_traitsIcEEE3getES3_S3_RSt8ios_baseRSt12_Ios_IostateRPv"            @4215   ; magicseg='TEXT32' len=105
  "__ZNSt7num_getIcSt19istreambuf_iteratorIcSt11char_traitsIcEEED2Ev"                      @4216   ; magicseg='TEXT32' len=65
  "__ZNSt7num_getIcSt19istreambuf_iteratorIcSt11char_traitsIcEEED1Ev"                      @4217   ; magicseg='TEXT32' len=65
  "__ZNSt7num_getIcSt19istreambuf_iteratorIcSt11char_traitsIcEEED0Ev"                      @4218   ; magicseg='TEXT32' len=65
  "__ZNKSt7num_getIcSt19istreambuf_iteratorIcSt11char_traitsIcEEE16_M_extract_floatES3_S3_RSt8ios_baseRSt12_Ios_IostateRSs"                                   @4219   ; magicseg='TEXT32' len=119
  "__ZNKSt7num_getIcSt19istreambuf_iteratorIcSt11char_traitsIcEEE14_M_extract_intES3_S3_RSt8ios_baseRSt12_Ios_IostateRSsRi"                                   @4220   ; magicseg='TEXT32' len=119
  "__ZNKSt7num_getIcSt19istreambuf_iteratorIcSt11char_traitsIcEEE6do_getES3_S3_RSt8ios_baseRSt12_Ios_IostateRb"          @4221   ; magicseg='TEXT32' len=107
  "__ZNKSt7num_getIcSt19istreambuf_iteratorIcSt11char_traitsIcEEE6do_getES3_S3_RSt8ios_baseRSt12_Ios_IostateRl"          @4222   ; magicseg='TEXT32' len=107
  "__ZNKSt7num_getIcSt19istreambuf_iteratorIcSt11char_traitsIcEEE6do_getES3_S3_RSt8ios_baseRSt12_Ios_IostateRt"          @4223   ; magicseg='TEXT32' len=107
  "__ZNKSt7num_getIcSt19istreambuf_iteratorIcSt11char_traitsIcEEE6do_getES3_S3_RSt8ios_baseRSt12_Ios_IostateRj"          @4224   ; magicseg='TEXT32' len=107
  "__ZNKSt7num_getIcSt19istreambuf_iteratorIcSt11char_traitsIcEEE6do_getES3_S3_RSt8ios_baseRSt12_Ios_IostateRm"          @4225   ; magicseg='TEXT32' len=107
  "__ZNKSt7num_getIcSt19istreambuf_iteratorIcSt11char_traitsIcEEE6do_getES3_S3_RSt8ios_baseRSt12_Ios_IostateRx"          @4226   ; magicseg='TEXT32' len=107
  "__ZNKSt7num_getIcSt19istreambuf_iteratorIcSt11char_traitsIcEEE6do_getES3_S3_RSt8ios_baseRSt12_Ios_IostateRy"          @4227   ; magicseg='TEXT32' len=107
  "__ZNKSt7num_getIcSt19istreambuf_iteratorIcSt11char_traitsIcEEE6do_getES3_S3_RSt8ios_baseRSt12_Ios_IostateRf"          @4228   ; magicseg='TEXT32' len=107
  "__ZNKSt7num_getIcSt19istreambuf_iteratorIcSt11char_traitsIcEEE6do_getES3_S3_RSt8ios_baseRSt12_Ios_IostateRd"          @4229   ; magicseg='TEXT32' len=107
  "__ZNKSt7num_getIcSt19istreambuf_iteratorIcSt11char_traitsIcEEE6do_getES3_S3_RSt8ios_baseRSt12_Ios_IostateRe"          @4230   ; magicseg='TEXT32' len=107
  "__ZNKSt7num_getIcSt19istreambuf_iteratorIcSt11char_traitsIcEEE6do_getES3_S3_RSt8ios_baseRSt12_Ios_IostateRPv"         @4231   ; magicseg='TEXT32' len=108
  "__ZNSt7num_putIcSt19ostreambuf_iteratorIcSt11char_traitsIcEEEC2Ej"                      @4232   ; magicseg='TEXT32' len=65
  "__ZTVSt7num_putIcSt19ostreambuf_iteratorIcSt11char_traitsIcEEE"     @4233   ; magicseg='TEXT32' len=62
  "__ZNSt7num_putIcSt19ostreambuf_iteratorIcSt11char_traitsIcEEEC1Ej"                      @4234   ; magicseg='TEXT32' len=65
  "__ZNKSt7num_putIcSt19ostreambuf_iteratorIcSt11char_traitsIcEEE3putES3_RSt8ios_basecb"   @4235   ; magicseg='TEXT32' len=84
  "__ZNKSt7num_putIcSt19ostreambuf_iteratorIcSt11char_traitsIcEEE3putES3_RSt8ios_basecl"   @4236   ; magicseg='TEXT32' len=84
  "__ZNKSt7num_putIcSt19ostreambuf_iteratorIcSt11char_traitsIcEEE3putES3_RSt8ios_basecm"   @4237   ; magicseg='TEXT32' len=84
  "__ZNKSt7num_putIcSt19ostreambuf_iteratorIcSt11char_traitsIcEEE3putES3_RSt8ios_basecx"   @4238   ; magicseg='TEXT32' len=84
  "__ZNKSt7num_putIcSt19ostreambuf_iteratorIcSt11char_traitsIcEEE3putES3_RSt8ios_basecy"   @4239   ; magicseg='TEXT32' len=84
  "__ZNKSt7num_putIcSt19ostreambuf_iteratorIcSt11char_traitsIcEEE3putES3_RSt8ios_basecd"   @4240   ; magicseg='TEXT32' len=84
  "__ZNKSt7num_putIcSt19ostreambuf_iteratorIcSt11char_traitsIcEEE3putES3_RSt8ios_basece"   @4241   ; magicseg='TEXT32' len=84
  "__ZNKSt7num_putIcSt19ostreambuf_iteratorIcSt11char_traitsIcEEE3putES3_RSt8ios_basecPKv"                               @4242   ; magicseg='TEXT32' len=86
  "__ZNKSt7num_putIcSt19ostreambuf_iteratorIcSt11char_traitsIcEEE14_M_group_floatERKSscPKcPcS9_Ri"                       @4243   ; magicseg='TEXT32' len=94
  "__ZNKSt7num_putIcSt19ostreambuf_iteratorIcSt11char_traitsIcEEE12_M_group_intERKSscRSt8ios_basePcS9_Ri"                @4244   ; magicseg='TEXT32' len=101
  "__ZNSt5__padIcSt11char_traitsIcEE6_S_padERSt8ios_basecPcPKciib"     @4245   ; magicseg='TEXT32' len=62
  "__ZNKSt7num_putIcSt19ostreambuf_iteratorIcSt11char_traitsIcEEE6_M_padEciRSt8ios_basePcPKcRi"                          @4246   ; magicseg='TEXT32' len=91
  "__ZNKSt7num_putIcSt19ostreambuf_iteratorIcSt11char_traitsIcEEE14_M_widen_floatES3_RSt8ios_basecPci"                   @4247   ; magicseg='TEXT32' len=98
  "__ZNKSt7num_putIcSt19ostreambuf_iteratorIcSt11char_traitsIcEEE9_M_insertES3_RSt8ios_basecPKci"                        @4248   ; magicseg='TEXT32' len=93
  "__ZNKSt7num_putIcSt19ostreambuf_iteratorIcSt11char_traitsIcEEE12_M_widen_intES3_RSt8ios_basecPci"                     @4249   ; magicseg='TEXT32' len=96
  "__ZNSt7num_putIcSt19ostreambuf_iteratorIcSt11char_traitsIcEEED2Ev"                      @4250   ; magicseg='TEXT32' len=65
  "__ZNSt7num_putIcSt19ostreambuf_iteratorIcSt11char_traitsIcEEED1Ev"                      @4251   ; magicseg='TEXT32' len=65
  "__ZNSt7num_putIcSt19ostreambuf_iteratorIcSt11char_traitsIcEEED0Ev"                      @4252   ; magicseg='TEXT32' len=65
  "__ZSt11__use_cacheISt8numpunctIcEERKSt14__locale_cacheIT_ERKSt6locale"                  @4253   ; magicseg='TEXT32' len=69
  "__ZNKSt7num_putIcSt19ostreambuf_iteratorIcSt11char_traitsIcEEE6do_putES3_RSt8ios_basecb"                              @4254   ; magicseg='TEXT32' len=87
  "__ZNKSt7num_putIcSt19ostreambuf_iteratorIcSt11char_traitsIcEEE14_M_convert_intImEES3_S3_RSt8ios_basecT_"              @4255   ; magicseg='TEXT32' len=103
  "__ZNKSt7num_putIcSt19ostreambuf_iteratorIcSt11char_traitsIcEEE6do_putES3_RSt8ios_basecl"                              @4256   ; magicseg='TEXT32' len=87
  "__ZNKSt7num_putIcSt19ostreambuf_iteratorIcSt11char_traitsIcEEE14_M_convert_intIlEES3_S3_RSt8ios_basecT_"              @4257   ; magicseg='TEXT32' len=103
  "__ZNKSt7num_putIcSt19ostreambuf_iteratorIcSt11char_traitsIcEEE6do_putES3_RSt8ios_basecm"                              @4258   ; magicseg='TEXT32' len=87
  "__ZNKSt7num_putIcSt19ostreambuf_iteratorIcSt11char_traitsIcEEE6do_putES3_RSt8ios_basecx"                              @4259   ; magicseg='TEXT32' len=87
  "__ZNKSt7num_putIcSt19ostreambuf_iteratorIcSt11char_traitsIcEEE14_M_convert_intIxEES3_S3_RSt8ios_basecT_"              @4260   ; magicseg='TEXT32' len=103
  "__ZNKSt7num_putIcSt19ostreambuf_iteratorIcSt11char_traitsIcEEE6do_putES3_RSt8ios_basecy"                              @4261   ; magicseg='TEXT32' len=87
  "__ZNKSt7num_putIcSt19ostreambuf_iteratorIcSt11char_traitsIcEEE14_M_convert_intIyEES3_S3_RSt8ios_basecT_"              @4262   ; magicseg='TEXT32' len=103
  "__ZNKSt7num_putIcSt19ostreambuf_iteratorIcSt11char_traitsIcEEE6do_putES3_RSt8ios_basecd"                              @4263   ; magicseg='TEXT32' len=87
  "__ZNKSt7num_putIcSt19ostreambuf_iteratorIcSt11char_traitsIcEEE16_M_convert_floatIdEES3_S3_RSt8ios_baseccT_"           @4264   ; magicseg='TEXT32' len=106
  "__ZNKSt7num_putIcSt19ostreambuf_iteratorIcSt11char_traitsIcEEE6do_putES3_RSt8ios_basece"                              @4265   ; magicseg='TEXT32' len=87
  "__ZNKSt7num_putIcSt19ostreambuf_iteratorIcSt11char_traitsIcEEE16_M_convert_floatIeEES3_S3_RSt8ios_baseccT_"           @4266   ; magicseg='TEXT32' len=106
  "__ZNKSt7num_putIcSt19ostreambuf_iteratorIcSt11char_traitsIcEEE6do_putES3_RSt8ios_basecPKv"                            @4267   ; magicseg='TEXT32' len=89
  "__ZSt13__int_to_charIcmEiPT_iT0_PKS0_St13_Ios_Fmtflagsb"            @4268   ; magicseg='TEXT32' len=55
  "__ZSt13__int_to_charIcyEiPT_iT0_PKS0_St13_Ios_Fmtflagsb"            @4269   ; magicseg='TEXT32' len=55
  "__ZSt16__convert_from_vIdEiPciPKcT_RKPii"                           @4270   ; magicseg='TEXT32' len=40
  "__ZNKSt7num_putIcSt19ostreambuf_iteratorIcSt11char_traitsIcEEE14_M_convert_intIlEES3_S3_RSt8ios_basecccT_"            @4271   ; magicseg='TEXT32' len=105
  "__ZSt16__convert_from_vIlEiPciPKcT_RKPii"                           @4272   ; magicseg='TEXT32' len=40
  "__ZNKSt7num_putIcSt19ostreambuf_iteratorIcSt11char_traitsIcEEE14_M_convert_intImEES3_S3_RSt8ios_basecccT_"            @4273   ; magicseg='TEXT32' len=105
  "__ZSt16__convert_from_vImEiPciPKcT_RKPii"                           @4274   ; magicseg='TEXT32' len=40
  "__ZNKSt7num_putIcSt19ostreambuf_iteratorIcSt11char_traitsIcEEE14_M_convert_intIxEES3_S3_RSt8ios_basecccT_"            @4275   ; magicseg='TEXT32' len=105
  "__ZSt16__convert_from_vIxEiPciPKcT_RKPii"                           @4276   ; magicseg='TEXT32' len=40
  "__ZNKSt7num_putIcSt19ostreambuf_iteratorIcSt11char_traitsIcEEE14_M_convert_intIyEES3_S3_RSt8ios_basecccT_"            @4277   ; magicseg='TEXT32' len=105
  "__ZSt16__convert_from_vIyEiPciPKcT_RKPii"                           @4278   ; magicseg='TEXT32' len=40
  "__ZNSt11__timepunctIcEC2Ej"                                         @4279   ; magicseg='TEXT32' len=26
  "__ZTVSt11__timepunctIcE"                                            @4280   ; magicseg='TEXT32' len=23
  "__ZNSt11__timepunctIcEC1Ej"                                         @4281   ; magicseg='TEXT32' len=26
  "__ZNSt11__timepunctIcEC2EPiPKcj"                                    @4282   ; magicseg='TEXT32' len=31
  "__ZNSt11__timepunctIcEC1EPiPKcj"                                    @4283   ; magicseg='TEXT32' len=31
  "__ZNKSt11__timepunctIcE15_M_date_formatsEPPKc"                      @4284   ; magicseg='TEXT32' len=45
  "__ZNKSt11__timepunctIcE15_M_time_formatsEPPKc"                      @4285   ; magicseg='TEXT32' len=45
  "__ZNKSt11__timepunctIcE7_M_ampmEPPKc"                               @4286   ; magicseg='TEXT32' len=36
  "__ZNKSt11__timepunctIcE20_M_date_time_formatsEPPKc"                 @4287   ; magicseg='TEXT32' len=50
  "__ZNKSt11__timepunctIcE7_M_daysEPPKc"                               @4288   ; magicseg='TEXT32' len=36
  "__ZNKSt11__timepunctIcE19_M_days_abbreviatedEPPKc"                  @4289   ; magicseg='TEXT32' len=49
  "__ZNKSt11__timepunctIcE9_M_monthsEPPKc"                             @4290   ; magicseg='TEXT32' len=38
  "__ZNKSt11__timepunctIcE21_M_months_abbreviatedEPPKc"                @4291   ; magicseg='TEXT32' len=51
  "__ZNSt11__timepunctIcED2Ev"                                         @4292   ; magicseg='TEXT32' len=26
  "__ZNSt11__timepunctIcED1Ev"                                         @4293   ; magicseg='TEXT32' len=26
  "__ZNSt11__timepunctIcED0Ev"                                         @4294   ; magicseg='TEXT32' len=26
  "__ZNSt8time_putIcSt19ostreambuf_iteratorIcSt11char_traitsIcEEEC2Ej"                     @4295   ; magicseg='TEXT32' len=66
  "__ZTVSt8time_putIcSt19ostreambuf_iteratorIcSt11char_traitsIcEEE"    @4296   ; magicseg='TEXT32' len=63
  "__ZNSt8time_putIcSt19ostreambuf_iteratorIcSt11char_traitsIcEEEC1Ej"                     @4297   ; magicseg='TEXT32' len=66
  "__ZNKSt8time_putIcSt19ostreambuf_iteratorIcSt11char_traitsIcEEE3putES3_RSt8ios_basecPK2tmPKcSB_"                      @4298   ; magicseg='TEXT32' len=95
  "__ZNKSt8time_putIcSt19ostreambuf_iteratorIcSt11char_traitsIcEEE3putES3_RSt8ios_basecPK2tmcc"                          @4299   ; magicseg='TEXT32' len=91
  "__ZNSt8time_putIcSt19ostreambuf_iteratorIcSt11char_traitsIcEEED2Ev"                     @4300   ; magicseg='TEXT32' len=66
  "__ZNSt8time_putIcSt19ostreambuf_iteratorIcSt11char_traitsIcEEED1Ev"                     @4301   ; magicseg='TEXT32' len=66
  "__ZNSt8time_putIcSt19ostreambuf_iteratorIcSt11char_traitsIcEEED0Ev"                     @4302   ; magicseg='TEXT32' len=66
  "__ZNKSt8time_putIcSt19ostreambuf_iteratorIcSt11char_traitsIcEEE6do_putES3_RSt8ios_basecPK2tmcc"                       @4303   ; magicseg='TEXT32' len=94
  "__ZSt9use_facetISt11__timepunctIcEERKT_RKSt6locale"                 @4304   ; magicseg='TEXT32' len=50
  "__ZNSt15time_put_bynameIcSt19ostreambuf_iteratorIcSt11char_traitsIcEEEC2EPKcj"          @4305   ; magicseg='TEXT32' len=77
  "__ZTVSt15time_put_bynameIcSt19ostreambuf_iteratorIcSt11char_traitsIcEEE"                @4306   ; magicseg='TEXT32' len=71
  "__ZNSt15time_put_bynameIcSt19ostreambuf_iteratorIcSt11char_traitsIcEEEC1EPKcj"          @4307   ; magicseg='TEXT32' len=77
  "__ZNSt15time_put_bynameIcSt19ostreambuf_iteratorIcSt11char_traitsIcEEED2Ev"             @4308   ; magicseg='TEXT32' len=74
  "__ZNSt15time_put_bynameIcSt19ostreambuf_iteratorIcSt11char_traitsIcEEED1Ev"             @4309   ; magicseg='TEXT32' len=74
  "__ZNSt15time_put_bynameIcSt19ostreambuf_iteratorIcSt11char_traitsIcEEED0Ev"             @4310   ; magicseg='TEXT32' len=74
  "__ZNSt8time_getIcSt19istreambuf_iteratorIcSt11char_traitsIcEEEC2Ej"                     @4311   ; magicseg='TEXT32' len=66
  "__ZTVSt8time_getIcSt19istreambuf_iteratorIcSt11char_traitsIcEEE"    @4312   ; magicseg='TEXT32' len=63
  "__ZNSt8time_getIcSt19istreambuf_iteratorIcSt11char_traitsIcEEEC1Ej"                     @4313   ; magicseg='TEXT32' len=66
  "__ZNKSt8time_getIcSt19istreambuf_iteratorIcSt11char_traitsIcEEE10date_orderEv"          @4314   ; magicseg='TEXT32' len=77
  "__ZNKSt8time_getIcSt19istreambuf_iteratorIcSt11char_traitsIcEEE8get_timeES3_S3_RSt8ios_baseRSt12_Ios_IostateP2tm"     @4315   ; magicseg='TEXT32' len=112
  "__ZNKSt8time_getIcSt19istreambuf_iteratorIcSt11char_traitsIcEEE8get_dateES3_S3_RSt8ios_baseRSt12_Ios_IostateP2tm"     @4316   ; magicseg='TEXT32' len=112
  "__ZNKSt8time_getIcSt19istreambuf_iteratorIcSt11char_traitsIcEEE11get_weekdayES3_S3_RSt8ios_baseRSt12_Ios_IostateP2tm"                                      @4317   ; magicseg='TEXT32' len=116
  "__ZNKSt8time_getIcSt19istreambuf_iteratorIcSt11char_traitsIcEEE13get_monthnameES3_S3_RSt8ios_baseRSt12_Ios_IostateP2tm"                                    @4318   ; magicseg='TEXT32' len=118
  "__ZNKSt8time_getIcSt19istreambuf_iteratorIcSt11char_traitsIcEEE8get_yearES3_S3_RSt8ios_baseRSt12_Ios_IostateP2tm"     @4319   ; magicseg='TEXT32' len=112
  "__ZNSt8time_getIcSt19istreambuf_iteratorIcSt11char_traitsIcEEED2Ev"                     @4320   ; magicseg='TEXT32' len=66
  "__ZNSt8time_getIcSt19istreambuf_iteratorIcSt11char_traitsIcEEED1Ev"                     @4321   ; magicseg='TEXT32' len=66
  "__ZNSt8time_getIcSt19istreambuf_iteratorIcSt11char_traitsIcEEED0Ev"                     @4322   ; magicseg='TEXT32' len=66
  "__ZNKSt8time_getIcSt19istreambuf_iteratorIcSt11char_traitsIcEEE13do_date_orderEv"       @4323   ; magicseg='TEXT32' len=80
  "__ZNKSt8time_getIcSt19istreambuf_iteratorIcSt11char_traitsIcEEE11do_get_timeES3_S3_RSt8ios_baseRSt12_Ios_IostateP2tm"                                      @4324   ; magicseg='TEXT32' len=116
  "__ZNKSt8time_getIcSt19istreambuf_iteratorIcSt11char_traitsIcEEE21_M_extract_via_formatERS3_S5_RSt8ios_baseRSt12_Ios_IostateP2tmPKc"                        @4325   ; magicseg='TEXT32' len=130
  "__ZNKSt8time_getIcSt19istreambuf_iteratorIcSt11char_traitsIcEEE11do_get_dateES3_S3_RSt8ios_baseRSt12_Ios_IostateP2tm"                                      @4326   ; magicseg='TEXT32' len=116
  "__ZNKSt8time_getIcSt19istreambuf_iteratorIcSt11char_traitsIcEEE14do_get_weekdayES3_S3_RSt8ios_baseRSt12_Ios_IostateP2tm"                                   @4327   ; magicseg='TEXT32' len=119
  "__ZNKSt8time_getIcSt19istreambuf_iteratorIcSt11char_traitsIcEEE15_M_extract_nameERS3_S5_RiPPKcjRSt12_Ios_Iostate"     @4328   ; magicseg='TEXT32' len=112
  "__ZNKSt8time_getIcSt19istreambuf_iteratorIcSt11char_traitsIcEEE16do_get_monthnameES3_S3_RSt8ios_baseRSt12_Ios_IostateP2tm"                                 @4329   ; magicseg='TEXT32' len=121
  "__ZNKSt8time_getIcSt19istreambuf_iteratorIcSt11char_traitsIcEEE11do_get_yearES3_S3_RSt8ios_baseRSt12_Ios_IostateP2tm"                                      @4330   ; magicseg='TEXT32' len=116
  "__ZNKSt8time_getIcSt19istreambuf_iteratorIcSt11char_traitsIcEEE14_M_extract_numERS3_S5_RiiijRKSt5ctypeIcERSt12_Ios_Iostate"                                @4331   ; magicseg='TEXT32' len=122
  "__ZNSt15time_get_bynameIcSt19istreambuf_iteratorIcSt11char_traitsIcEEEC2EPKcj"          @4332   ; magicseg='TEXT32' len=77
  "__ZTVSt15time_get_bynameIcSt19istreambuf_iteratorIcSt11char_traitsIcEEE"                @4333   ; magicseg='TEXT32' len=71
  "__ZNSt15time_get_bynameIcSt19istreambuf_iteratorIcSt11char_traitsIcEEEC1EPKcj"          @4334   ; magicseg='TEXT32' len=77
  "__ZNSt15time_get_bynameIcSt19istreambuf_iteratorIcSt11char_traitsIcEEED2Ev"             @4335   ; magicseg='TEXT32' len=74
  "__ZNSt15time_get_bynameIcSt19istreambuf_iteratorIcSt11char_traitsIcEEED1Ev"             @4336   ; magicseg='TEXT32' len=74
  "__ZNSt15time_get_bynameIcSt19istreambuf_iteratorIcSt11char_traitsIcEEED0Ev"             @4337   ; magicseg='TEXT32' len=74
  "__ZNSt8messagesIcEC2Ej"                                             @4338   ; magicseg='TEXT32' len=22
  "__ZTVSt8messagesIcE"                                                @4339   ; magicseg='TEXT32' len=19
  "__ZNSt8messagesIcEC1Ej"                                             @4340   ; magicseg='TEXT32' len=22
  "__ZNSt8messagesIcEC2EPiPKcj"                                        @4341   ; magicseg='TEXT32' len=27
  "__ZNSt8messagesIcEC1EPiPKcj"                                        @4342   ; magicseg='TEXT32' len=27
  "__ZNKSt8messagesIcE4openERKSsRKSt6locale"                           @4343   ; magicseg='TEXT32' len=40
  "__ZNKSt8messagesIcE4openERKSsRKSt6localePKc"                        @4344   ; magicseg='TEXT32' len=43
  "__ZNKSt8messagesIcE3getEiiiRKSs"                                    @4345   ; magicseg='TEXT32' len=31
  "__ZNKSt8messagesIcE5closeEi"                                        @4346   ; magicseg='TEXT32' len=27
  "__ZNSt8messagesIcED2Ev"                                             @4347   ; magicseg='TEXT32' len=22
  "__ZNSt8messagesIcED1Ev"                                             @4348   ; magicseg='TEXT32' len=22
  "__ZNSt8messagesIcED0Ev"                                             @4349   ; magicseg='TEXT32' len=22
  "__ZNKSt8messagesIcE7do_openERKSsRKSt6locale"                        @4350   ; magicseg='TEXT32' len=43
  "__ZNKSt8messagesIcE8do_closeEi"                                     @4351   ; magicseg='TEXT32' len=30
  "__ZNKSt8messagesIcE18_M_convert_to_charERKSs"                       @4352   ; magicseg='TEXT32' len=44
  "__ZNKSt8messagesIcE20_M_convert_from_charEPc"                       @4353   ; magicseg='TEXT32' len=44
  "__ZNSt15messages_bynameIcEC2EPKcj"                                  @4354   ; magicseg='TEXT32' len=33
  "__ZTVSt15messages_bynameIcE"                                        @4355   ; magicseg='TEXT32' len=27
  "__ZNSt15messages_bynameIcEC1EPKcj"                                  @4356   ; magicseg='TEXT32' len=33
  "__ZNSt15messages_bynameIcED2Ev"                                     @4357   ; magicseg='TEXT32' len=30
  "__ZNSt15messages_bynameIcED1Ev"                                     @4358   ; magicseg='TEXT32' len=30
  "__ZNSt15messages_bynameIcED0Ev"                                     @4359   ; magicseg='TEXT32' len=30
  "__ZNSt12ctype_bynameIcED2Ev"                                        @4360   ; magicseg='TEXT32' len=27
  "__ZTVSt12ctype_bynameIcE"                                           @4361   ; magicseg='TEXT32' len=24
  "__ZNSt12ctype_bynameIcED1Ev"                                        @4362   ; magicseg='TEXT32' len=27
  "__ZNSt12ctype_bynameIcED0Ev"                                        @4363   ; magicseg='TEXT32' len=27
  "__ZNSt14codecvt_bynameIcc11__mbstate_tEC2EPKcj"                     @4364   ; magicseg='TEXT32' len=46
  "__ZTVSt14codecvt_bynameIcc11__mbstate_tE"                           @4365   ; magicseg='TEXT32' len=40
  "__ZNSt14codecvt_bynameIcc11__mbstate_tEC1EPKcj"                     @4366   ; magicseg='TEXT32' len=46
  "__ZNSt14codecvt_bynameIcc11__mbstate_tED2Ev"                        @4367   ; magicseg='TEXT32' len=43
  "__ZNSt14codecvt_bynameIcc11__mbstate_tED1Ev"                        @4368   ; magicseg='TEXT32' len=43
  "__ZNSt14codecvt_bynameIcc11__mbstate_tED0Ev"                        @4369   ; magicseg='TEXT32' len=43
  "__ZNSt7collateIcEC2Ej"                                              @4370   ; magicseg='TEXT32' len=21
  "__ZTVSt7collateIcE"                                                 @4371   ; magicseg='TEXT32' len=18
  "__ZNSt7collateIcEC1Ej"                                              @4372   ; magicseg='TEXT32' len=21
  "__ZNSt7collateIcEC2EPij"                                            @4373   ; magicseg='TEXT32' len=23
  "__ZNSt7collateIcEC1EPij"                                            @4374   ; magicseg='TEXT32' len=23
  "__ZNKSt7collateIcE7compareEPKcS2_S2_S2_"                            @4375   ; magicseg='TEXT32' len=39
  "__ZNKSt7collateIcE9transformEPKcS2_"                                @4376   ; magicseg='TEXT32' len=35
  "__ZNKSt7collateIcE4hashEPKcS2_"                                     @4377   ; magicseg='TEXT32' len=30
  "__ZNSt7collateIcED2Ev"                                              @4378   ; magicseg='TEXT32' len=21
  "__ZNSt7collateIcED1Ev"                                              @4379   ; magicseg='TEXT32' len=21
  "__ZNSt7collateIcED0Ev"                                              @4380   ; magicseg='TEXT32' len=21
  "__ZNKSt7collateIcE10do_compareEPKcS2_S2_S2_"                        @4381   ; magicseg='TEXT32' len=43
  "__ZNKSt7collateIcE12do_transformEPKcS2_"                            @4382   ; magicseg='TEXT32' len=39
  "__ZNKSt7collateIcE7do_hashEPKcS2_"                                  @4383   ; magicseg='TEXT32' len=33
  "__ZNSt14collate_bynameIcEC2EPKcj"                                   @4384   ; magicseg='TEXT32' len=32
  "__ZTVSt14collate_bynameIcE"                                         @4385   ; magicseg='TEXT32' len=26
  "__ZNSt14collate_bynameIcEC1EPKcj"                                   @4386   ; magicseg='TEXT32' len=32
  "__ZNSt14collate_bynameIcED2Ev"                                      @4387   ; magicseg='TEXT32' len=29
  "__ZNSt14collate_bynameIcED1Ev"                                      @4388   ; magicseg='TEXT32' len=29
  "__ZNSt14collate_bynameIcED0Ev"                                      @4389   ; magicseg='TEXT32' len=29
  "__ZSt9use_facetISt7codecvtIcc11__mbstate_tEERKT_RKSt6locale"        @4390   ; magicseg='TEXT32' len=59
  "__ZSt9use_facetISt7collateIcEERKT_RKSt6locale"                      @4391   ; magicseg='TEXT32' len=45
  "__ZSt9use_facetISt7num_putIcSt19ostreambuf_iteratorIcSt11char_traitsIcEEEERKT_RKSt6locale"                            @4392   ; magicseg='TEXT32' len=89
  "__ZSt9use_facetISt7num_getIcSt19istreambuf_iteratorIcSt11char_traitsIcEEEERKT_RKSt6locale"                            @4393   ; magicseg='TEXT32' len=89
  "__ZSt9use_facetISt9money_putIcSt19ostreambuf_iteratorIcSt11char_traitsIcEEEERKT_RKSt6locale"                          @4394   ; magicseg='TEXT32' len=91
  "__ZSt9use_facetISt9money_getIcSt19istreambuf_iteratorIcSt11char_traitsIcEEEERKT_RKSt6locale"                          @4395   ; magicseg='TEXT32' len=91
  "__ZSt9use_facetISt8time_putIcSt19ostreambuf_iteratorIcSt11char_traitsIcEEEERKT_RKSt6locale"                           @4396   ; magicseg='TEXT32' len=90
  "__ZSt9use_facetISt8time_getIcSt19istreambuf_iteratorIcSt11char_traitsIcEEEERKT_RKSt6locale"                           @4397   ; magicseg='TEXT32' len=90
  "__ZSt9use_facetISt8messagesIcEERKT_RKSt6locale"                     @4398   ; magicseg='TEXT32' len=46
  "__ZSt9has_facetISt7codecvtIcc11__mbstate_tEEbRKSt6locale"           @4399   ; magicseg='TEXT32' len=56
  "__ZSt9has_facetISt7collateIcEEbRKSt6locale"                         @4400   ; magicseg='TEXT32' len=42
  "__ZSt9has_facetISt7num_putIcSt19ostreambuf_iteratorIcSt11char_traitsIcEEEEbRKSt6locale"                               @4401   ; magicseg='TEXT32' len=86
  "__ZSt9has_facetISt7num_getIcSt19istreambuf_iteratorIcSt11char_traitsIcEEEEbRKSt6locale"                               @4402   ; magicseg='TEXT32' len=86
  "__ZSt9has_facetISt10moneypunctIcLb0EEEbRKSt6locale"                 @4403   ; magicseg='TEXT32' len=50
  "__ZSt9has_facetISt9money_putIcSt19ostreambuf_iteratorIcSt11char_traitsIcEEEEbRKSt6locale"                             @4404   ; magicseg='TEXT32' len=88
  "__ZSt9has_facetISt9money_getIcSt19istreambuf_iteratorIcSt11char_traitsIcEEEEbRKSt6locale"                             @4405   ; magicseg='TEXT32' len=88
  "__ZSt9has_facetISt11__timepunctIcEEbRKSt6locale"                    @4406   ; magicseg='TEXT32' len=47
  "__ZSt9has_facetISt8time_putIcSt19ostreambuf_iteratorIcSt11char_traitsIcEEEEbRKSt6locale"                              @4407   ; magicseg='TEXT32' len=87
  "__ZSt9has_facetISt8time_getIcSt19istreambuf_iteratorIcSt11char_traitsIcEEEEbRKSt6locale"                              @4408   ; magicseg='TEXT32' len=87
  "__ZSt9has_facetISt8messagesIcEEbRKSt6locale"                        @4409   ; magicseg='TEXT32' len=43
  "__ZTISt14__locale_cacheISt8numpunctIcEE"                            @4410   ; magicseg='TEXT32' len=39
  "__ZTISt14collate_bynameIcE"                                         @4411   ; magicseg='TEXT32' len=26
  "__ZTISt14codecvt_bynameIcc11__mbstate_tE"                           @4412   ; magicseg='TEXT32' len=40
  "__ZTISt15messages_bynameIcE"                                        @4413   ; magicseg='TEXT32' len=27
  "__ZTISt15time_get_bynameIcSt19istreambuf_iteratorIcSt11char_traitsIcEEE"                @4414   ; magicseg='TEXT32' len=71
  "__ZTISt8time_getIcSt19istreambuf_iteratorIcSt11char_traitsIcEEE"    @4415   ; magicseg='TEXT32' len=63
  "__ZTISt15time_put_bynameIcSt19ostreambuf_iteratorIcSt11char_traitsIcEEE"                @4416   ; magicseg='TEXT32' len=71
  "__ZTISt8time_putIcSt19ostreambuf_iteratorIcSt11char_traitsIcEEE"    @4417   ; magicseg='TEXT32' len=63
  "__ZTISt7num_putIcSt19ostreambuf_iteratorIcSt11char_traitsIcEEE"     @4418   ; magicseg='TEXT32' len=62
  "__ZTISt7num_getIcSt19istreambuf_iteratorIcSt11char_traitsIcEEE"     @4419   ; magicseg='TEXT32' len=62
  "__ZTISt15numpunct_bynameIcE"                                        @4420   ; magicseg='TEXT32' len=27
  "__ZTISt9money_putIcSt19ostreambuf_iteratorIcSt11char_traitsIcEEE"   @4421   ; magicseg='TEXT32' len=64
  "__ZTISt9money_getIcSt19istreambuf_iteratorIcSt11char_traitsIcEEE"   @4422   ; magicseg='TEXT32' len=64
  "__ZTISt17moneypunct_bynameIcLb1EE"                                  @4423   ; magicseg='TEXT32' len=33
  "__ZTISt17moneypunct_bynameIcLb0EE"                                  @4424   ; magicseg='TEXT32' len=33
  "__ZTISt19__locale_cache_base"                                       @4425   ; magicseg='TEXT32' len=28
  "__ZNSt19__locale_cache_baseD1Ev"                                    @4426   ; magicseg='TEXT32' len=31
  "__ZNSt19__locale_cache_baseD0Ev"                                    @4427   ; magicseg='TEXT32' len=31
  "__ZTISt8messagesIcE"                                                @4428   ; magicseg='TEXT32' len=19
  "__ZTISt10moneypunctIcLb0EE"                                         @4429   ; magicseg='TEXT32' len=26
  "__ZTISt10moneypunctIcLb1EE"                                         @4430   ; magicseg='TEXT32' len=26
  "__ZTISt11__timepunctIcE"                                            @4431   ; magicseg='TEXT32' len=23
  "__ZTISt7collateIcE"                                                 @4432   ; magicseg='TEXT32' len=18
  "__ZTISt8numpunctIcE"                                                @4433   ; magicseg='TEXT32' len=19
  "__ZTISt12ctype_bynameIcE"                                           @4434   ; magicseg='TEXT32' len=24
  "__ZTSSt12ctype_bynameIcE"                                           @4435   ; magicseg='TEXT32' len=24
  "__ZTSSt8numpunctIcE"                                                @4436   ; magicseg='TEXT32' len=19
  "__ZTSSt7collateIcE"                                                 @4437   ; magicseg='TEXT32' len=18
  "__ZTSSt11__timepunctIcE"                                            @4438   ; magicseg='TEXT32' len=23
  "__ZTSSt10moneypunctIcLb1EE"                                         @4439   ; magicseg='TEXT32' len=26
  "__ZTISt10money_base"                                                @4440   ; magicseg='TEXT32' len=19
  "__ZTSSt10moneypunctIcLb0EE"                                         @4441   ; magicseg='TEXT32' len=26
  "__ZTSSt8messagesIcE"                                                @4442   ; magicseg='TEXT32' len=19
  "__ZTISt13messages_base"                                             @4443   ; magicseg='TEXT32' len=22
  "__ZTSSt19__locale_cache_base"                                       @4444   ; magicseg='TEXT32' len=28
  "__ZTSSt17moneypunct_bynameIcLb0EE"                                  @4445   ; magicseg='TEXT32' len=33
  "__ZTSSt17moneypunct_bynameIcLb1EE"                                  @4446   ; magicseg='TEXT32' len=33
  "__ZTSSt9money_getIcSt19istreambuf_iteratorIcSt11char_traitsIcEEE"   @4447   ; magicseg='TEXT32' len=64
  "__ZTSSt9money_putIcSt19ostreambuf_iteratorIcSt11char_traitsIcEEE"   @4448   ; magicseg='TEXT32' len=64
  "__ZTSSt15numpunct_bynameIcE"                                        @4449   ; magicseg='TEXT32' len=27
  "__ZTSSt7num_getIcSt19istreambuf_iteratorIcSt11char_traitsIcEEE"     @4450   ; magicseg='TEXT32' len=62
  "__ZTISt10__num_base"                                                @4451   ; magicseg='TEXT32' len=19
  "__ZTSSt7num_putIcSt19ostreambuf_iteratorIcSt11char_traitsIcEEE"     @4452   ; magicseg='TEXT32' len=62
  "__ZTSSt8time_putIcSt19ostreambuf_iteratorIcSt11char_traitsIcEEE"    @4453   ; magicseg='TEXT32' len=63
  "__ZTISt9time_base"                                                  @4454   ; magicseg='TEXT32' len=17
  "__ZTSSt15time_put_bynameIcSt19ostreambuf_iteratorIcSt11char_traitsIcEEE"                @4455   ; magicseg='TEXT32' len=71
  "__ZTSSt8time_getIcSt19istreambuf_iteratorIcSt11char_traitsIcEEE"    @4456   ; magicseg='TEXT32' len=63
  "__ZTSSt15time_get_bynameIcSt19istreambuf_iteratorIcSt11char_traitsIcEEE"                @4457   ; magicseg='TEXT32' len=71
  "__ZTSSt15messages_bynameIcE"                                        @4458   ; magicseg='TEXT32' len=27
  "__ZTSSt14codecvt_bynameIcc11__mbstate_tE"                           @4459   ; magicseg='TEXT32' len=40
  "__ZTSSt14collate_bynameIcE"                                         @4460   ; magicseg='TEXT32' len=26
  "__ZTSSt14__locale_cacheISt8numpunctIcEE"                            @4461   ; magicseg='TEXT32' len=39
  "__ZNSt10moneypunctIcLb1EE4intlE"                                    @4462   ; magicseg='TEXT32' len=31
  "__ZNSt10moneypunctIcLb0EE4intlE"                                    @4463   ; magicseg='TEXT32' len=31
  "__ZNSt17moneypunct_bynameIcLb0EE4intlE"                             @4464   ; magicseg='TEXT32' len=38
  "__ZNSt17moneypunct_bynameIcLb1EE4intlE"                             @4465   ; magicseg='TEXT32' len=38
  "__ZTSSt9time_base"                                                  @4466   ; magicseg='TEXT32' len=17
  "__ZTSSt10__num_base"                                                @4467   ; magicseg='TEXT32' len=19
  "__ZTSSt13messages_base"                                             @4468   ; magicseg='TEXT32' len=22
  "__ZTSSt10money_base"                                                @4469   ; magicseg='TEXT32' len=19
  "__ZNSt6locale5_ImplD2Ev"                                            @4470   ; magicseg='TEXT32' len=23
  "__ZNSt6locale5_ImplD1Ev"                                            @4471   ; magicseg='TEXT32' len=23
  "__ZNSt6locale5_ImplC2ERKS0_j"                                       @4472   ; magicseg='TEXT32' len=28
  "__ZNSt6locale5_ImplC1ERKS0_j"                                       @4473   ; magicseg='TEXT32' len=28
  "__ZNSt6locale5_ImplC2EPKcj"                                         @4474   ; magicseg='TEXT32' len=26
  "__ZNSt6locale5_Impl16_M_install_facetEPKNS_2idEPNS_5facetE"         @4475   ; magicseg='TEXT32' len=58
  "__ZNSt6locale5_ImplC1EPKcj"                                         @4476   ; magicseg='TEXT32' len=26
  "__ZNSt6locale5_ImplC2EPPNS_5facetEjb"                               @4477   ; magicseg='TEXT32' len=36
  "__ZNSt6locale5_ImplC1EPPNS_5facetEjb"                               @4478   ; magicseg='TEXT32' len=36
  "__ZNSt6locale5_Impl21_M_replace_categoriesEPKS0_j"                  @4479   ; magicseg='TEXT32' len=49
  "__ZNSt6locale5_Impl19_M_replace_categoryEPKS0_PKPKNS_2idE"          @4480   ; magicseg='TEXT32' len=57
  "__ZNSt6locale5_Impl16_M_replace_facetEPKS0_PKNS_2idE"               @4481   ; magicseg='TEXT32' len=52
  "__ZStrsIcSt11char_traitsIcESaIcEERSt13basic_istreamIT_T0_ES7_RSbIS4_S5_T1_E"            @4482   ; magicseg='TEXT32' len=75
  "__ZStlsIcSt11char_traitsIcESaIcEERSt13basic_ostreamIT_T0_ES7_RKSbIS4_S5_T1_E"           @4483   ; magicseg='TEXT32' len=76
  "__ZSt7getlineIcSt11char_traitsIcESaIcEERSt13basic_istreamIT_T0_ES7_RSbIS4_S5_T1_ES4_"   @4484   ; magicseg='TEXT32' len=84
  "__ZSt7getlineIcSt11char_traitsIcESaIcEERSt13basic_istreamIT_T0_ES7_RSbIS4_S5_T1_E"      @4485   ; magicseg='TEXT32' len=81
  "__ZSt26__uninitialized_fill_n_auxIPSsjSsET_S1_T0_RKT1_12__false_type"                   @4486   ; magicseg='TEXT32' len=68
  "__ZSt24__uninitialized_copy_auxIN9__gnu_cxx17__normal_iteratorIPKSsSt6vectorISsSaISsEEEEPSsET0_T_SA_S9_12__false_type"                                     @4487   ; magicseg='TEXT32' len=117
  "__ZNSoC2EPSt15basic_streambufIcSt11char_traitsIcEE"                 @4488   ; magicseg='TEXT32' len=50
  "__ZNSoC1EPSt15basic_streambufIcSt11char_traitsIcEE"                 @4489   ; magicseg='TEXT32' len=50
  "__ZTVSo"                                                            @4490   ; magicseg='TEXT32' len=7
  "__ZNSoD2Ev"                                                         @4491   ; magicseg='TEXT32' len=10
  "__ZNSoD1Ev"                                                         @4492   ; magicseg='TEXT32' len=10
  "__ZTv0_n12_NSoD1Ev"                                                 @4493   ; magicseg='TEXT32' len=18
  "__ZNSoD0Ev"                                                         @4494   ; magicseg='TEXT32' len=10
  "__ZTv0_n12_NSoD0Ev"                                                 @4495   ; magicseg='TEXT32' len=18
  "__ZNSolsEPFRSoS_E"                                                  @4496   ; magicseg='TEXT32' len=17
  "__ZNSolsEPFRSt9basic_iosIcSt11char_traitsIcEES3_E"                  @4497   ; magicseg='TEXT32' len=49
  "__ZNSolsEPFRSt8ios_baseS0_E"                                        @4498   ; magicseg='TEXT32' len=27
  "__ZNSo6sentryD2Ev"                                                  @4499   ; magicseg='TEXT32' len=17
  "__ZNSo6sentryD1Ev"                                                  @4500   ; magicseg='TEXT32' len=17
  "__ZNSo6sentrycvbEv"                                                 @4501   ; magicseg='TEXT32' len=18
  "__ZNSolsEl"                                                         @4502   ; magicseg='TEXT32' len=10
  "__ZNSo6sentryC1ERSo"                                                @4503   ; magicseg='TEXT32' len=19
  "__ZNSolsEm"                                                         @4504   ; magicseg='TEXT32' len=10
  "__ZNSolsEb"                                                         @4505   ; magicseg='TEXT32' len=10
  "__ZNSolsEs"                                                         @4506   ; magicseg='TEXT32' len=10
  "__ZNSolsEt"                                                         @4507   ; magicseg='TEXT32' len=10
  "__ZNSolsEi"                                                         @4508   ; magicseg='TEXT32' len=10
  "__ZNSolsEj"                                                         @4509   ; magicseg='TEXT32' len=10
  "__ZNSolsEx"                                                         @4510   ; magicseg='TEXT32' len=10
  "__ZNSolsEy"                                                         @4511   ; magicseg='TEXT32' len=10
  "__ZNSolsEd"                                                         @4512   ; magicseg='TEXT32' len=10
  "__ZNSolsEf"                                                         @4513   ; magicseg='TEXT32' len=10
  "__ZNSolsEe"                                                         @4514   ; magicseg='TEXT32' len=10
  "__ZNSolsEPKv"                                                       @4515   ; magicseg='TEXT32' len=12
  "__ZNSolsEPSt15basic_streambufIcSt11char_traitsIcEE"                 @4516   ; magicseg='TEXT32' len=50
  "__ZNSo3putEc"                                                       @4517   ; magicseg='TEXT32' len=12
  "__ZNSo5writeEPKci"                                                  @4518   ; magicseg='TEXT32' len=17
  "__ZNSo5flushEv"                                                     @4519   ; magicseg='TEXT32' len=14
  "__ZNSo5tellpEv"                                                     @4520   ; magicseg='TEXT32' len=14
  "__ZNSo5seekpESt4fposI11__mbstate_tE"                                @4521   ; magicseg='TEXT32' len=35
  "__ZNSo5seekpElSt12_Ios_Seekdir"                                     @4522   ; magicseg='TEXT32' len=30
  "__ZNSo6sentryC2ERSo"                                                @4523   ; magicseg='TEXT32' len=19
  "__ZSt4endlIcSt11char_traitsIcEERSt13basic_ostreamIT_T0_ES6_"        @4524   ; magicseg='TEXT32' len=59
  "__ZSt5flushIcSt11char_traitsIcEERSt13basic_ostreamIT_T0_ES6_"       @4525   ; magicseg='TEXT32' len=60
  "__ZSt4endsIcSt11char_traitsIcEERSt13basic_ostreamIT_T0_ES6_"        @4526   ; magicseg='TEXT32' len=59
  "__ZStlsISt11char_traitsIcEERSt13basic_ostreamIcT_ES5_c"             @4527   ; magicseg='TEXT32' len=54
  "__ZStlsISt11char_traitsIcEERSt13basic_ostreamIcT_ES5_h"             @4528   ; magicseg='TEXT32' len=54
  "__ZStlsISt11char_traitsIcEERSt13basic_ostreamIcT_ES5_a"             @4529   ; magicseg='TEXT32' len=54
  "__ZStlsISt11char_traitsIcEERSt13basic_ostreamIcT_ES5_PKc"           @4530   ; magicseg='TEXT32' len=56
  "__ZStlsISt11char_traitsIcEERSt13basic_ostreamIcT_ES5_PKh"           @4531   ; magicseg='TEXT32' len=56
  "__ZStlsISt11char_traitsIcEERSt13basic_ostreamIcT_ES5_PKa"           @4532   ; magicseg='TEXT32' len=56
  "__ZStlsIcSt11char_traitsIcEERSt13basic_ostreamIT_T0_ES6_St8_SetfillIS3_E"               @4533   ; magicseg='TEXT32' len=72
  "__ZStlsIcSt11char_traitsIcEERSt13basic_ostreamIT_T0_ES6_St12_Setiosflags"               @4534   ; magicseg='TEXT32' len=72
  "__ZStlsIcSt11char_traitsIcEERSt13basic_ostreamIT_T0_ES6_St14_Resetiosflags"             @4535   ; magicseg='TEXT32' len=74
  "__ZStlsIcSt11char_traitsIcEERSt13basic_ostreamIT_T0_ES6_St8_Setbase"                    @4536   ; magicseg='TEXT32' len=67
  "__ZStlsIcSt11char_traitsIcEERSt13basic_ostreamIT_T0_ES6_St13_Setprecision"              @4537   ; magicseg='TEXT32' len=73
  "__ZStlsIcSt11char_traitsIcEERSt13basic_ostreamIT_T0_ES6_St5_Setw"   @4538   ; magicseg='TEXT32' len=64
  "__ZTISo"                                                            @4539   ; magicseg='TEXT32' len=7
  "__ZTTSo"                                                            @4540   ; magicseg='TEXT32' len=7
  "__ZTSSo"                                                            @4541   ; magicseg='TEXT32' len=7
  "__ZNSt15basic_stringbufIcSt11char_traitsIcESaIcEEC2ESt13_Ios_Openmode"                  @4542   ; magicseg='TEXT32' len=69
  "__ZNSt15basic_stringbufIcSt11char_traitsIcESaIcEEC1ESt13_Ios_Openmode"                  @4543   ; magicseg='TEXT32' len=69
  "__ZNSt15basic_stringbufIcSt11char_traitsIcESaIcEEC2ERKSsSt13_Ios_Openmode"              @4544   ; magicseg='TEXT32' len=73
  "__ZNSt15basic_stringbufIcSt11char_traitsIcESaIcEEC1ERKSsSt13_Ios_Openmode"              @4545   ; magicseg='TEXT32' len=73
  "__ZNSt15basic_stringbufIcSt11char_traitsIcESaIcEE3strERKSs"         @4546   ; magicseg='TEXT32' len=58
  "__ZNSt15basic_stringbufIcSt11char_traitsIcESaIcEE9pbackfailEi"      @4547   ; magicseg='TEXT32' len=61
  "__ZNSt15basic_stringbufIcSt11char_traitsIcESaIcEE8overflowEi"       @4548   ; magicseg='TEXT32' len=60
  "__ZNSt15basic_stringbufIcSt11char_traitsIcESaIcEE7seekoffElSt12_Ios_SeekdirSt13_Ios_Openmode"                         @4549   ; magicseg='TEXT32' len=92
  "__ZNSt15basic_stringbufIcSt11char_traitsIcESaIcEE7seekposESt4fposI11__mbstate_tESt13_Ios_Openmode"                    @4550   ; magicseg='TEXT32' len=97
  "__ZNSt19basic_istringstreamIcSt11char_traitsIcESaIcEEC2ESt13_Ios_Openmode"              @4551   ; magicseg='TEXT32' len=73
  "__ZNSt19basic_istringstreamIcSt11char_traitsIcESaIcEEC1ESt13_Ios_Openmode"              @4552   ; magicseg='TEXT32' len=73
  "__ZTTSt19basic_istringstreamIcSt11char_traitsIcESaIcEE"             @4553   ; magicseg='TEXT32' len=54
  "__ZTVSt19basic_istringstreamIcSt11char_traitsIcESaIcEE"             @4554   ; magicseg='TEXT32' len=54
  "__ZNSt19basic_istringstreamIcSt11char_traitsIcESaIcEEC2ERKSsSt13_Ios_Openmode"          @4555   ; magicseg='TEXT32' len=77
  "__ZNSt19basic_istringstreamIcSt11char_traitsIcESaIcEEC1ERKSsSt13_Ios_Openmode"          @4556   ; magicseg='TEXT32' len=77
  "__ZNSt19basic_istringstreamIcSt11char_traitsIcESaIcEED2Ev"          @4557   ; magicseg='TEXT32' len=57
  "__ZNSt19basic_istringstreamIcSt11char_traitsIcESaIcEED1Ev"          @4558   ; magicseg='TEXT32' len=57
  "__ZTv0_n12_NSt19basic_istringstreamIcSt11char_traitsIcESaIcEED1Ev"                      @4559   ; magicseg='TEXT32' len=65
  "__ZNSt19basic_istringstreamIcSt11char_traitsIcESaIcEED0Ev"          @4560   ; magicseg='TEXT32' len=57
  "__ZTv0_n12_NSt19basic_istringstreamIcSt11char_traitsIcESaIcEED0Ev"                      @4561   ; magicseg='TEXT32' len=65
  "__ZNKSt19basic_istringstreamIcSt11char_traitsIcESaIcEE5rdbufEv"     @4562   ; magicseg='TEXT32' len=62
  "__ZNKSt19basic_istringstreamIcSt11char_traitsIcESaIcEE3strEv"       @4563   ; magicseg='TEXT32' len=60
  "__ZNSt19basic_istringstreamIcSt11char_traitsIcESaIcEE3strERKSs"     @4564   ; magicseg='TEXT32' len=62
  "__ZNSt19basic_ostringstreamIcSt11char_traitsIcESaIcEEC2ESt13_Ios_Openmode"              @4565   ; magicseg='TEXT32' len=73
  "__ZNSt19basic_ostringstreamIcSt11char_traitsIcESaIcEEC1ESt13_Ios_Openmode"              @4566   ; magicseg='TEXT32' len=73
  "__ZNSt19basic_ostringstreamIcSt11char_traitsIcESaIcEEC2ERKSsSt13_Ios_Openmode"          @4567   ; magicseg='TEXT32' len=77
  "__ZNSt19basic_ostringstreamIcSt11char_traitsIcESaIcEEC1ERKSsSt13_Ios_Openmode"          @4568   ; magicseg='TEXT32' len=77
  "__ZNSt19basic_ostringstreamIcSt11char_traitsIcESaIcEED2Ev"          @4569   ; magicseg='TEXT32' len=57
  "__ZNKSt19basic_ostringstreamIcSt11char_traitsIcESaIcEE5rdbufEv"     @4570   ; magicseg='TEXT32' len=62
  "__ZNKSt19basic_ostringstreamIcSt11char_traitsIcESaIcEE3strEv"       @4571   ; magicseg='TEXT32' len=60
  "__ZNSt19basic_ostringstreamIcSt11char_traitsIcESaIcEE3strERKSs"     @4572   ; magicseg='TEXT32' len=62
  "__ZNSt18basic_stringstreamIcSt11char_traitsIcESaIcEEC2ESt13_Ios_Openmode"               @4573   ; magicseg='TEXT32' len=72
  "__ZNSt18basic_stringstreamIcSt11char_traitsIcESaIcEEC1ESt13_Ios_Openmode"               @4574   ; magicseg='TEXT32' len=72
  "__ZTTSt18basic_stringstreamIcSt11char_traitsIcESaIcEE"              @4575   ; magicseg='TEXT32' len=53
  "__ZTVSt18basic_stringstreamIcSt11char_traitsIcESaIcEE"              @4576   ; magicseg='TEXT32' len=53
  "__ZNSt18basic_stringstreamIcSt11char_traitsIcESaIcEEC2ERKSsSt13_Ios_Openmode"           @4577   ; magicseg='TEXT32' len=76
  "__ZNSt18basic_stringstreamIcSt11char_traitsIcESaIcEEC1ERKSsSt13_Ios_Openmode"           @4578   ; magicseg='TEXT32' len=76
  "__ZNSt18basic_stringstreamIcSt11char_traitsIcESaIcEED2Ev"           @4579   ; magicseg='TEXT32' len=56
  "__ZNSt18basic_stringstreamIcSt11char_traitsIcESaIcEED1Ev"           @4580   ; magicseg='TEXT32' len=56
  "__ZTv0_n12_NSt18basic_stringstreamIcSt11char_traitsIcESaIcEED1Ev"   @4581   ; magicseg='TEXT32' len=64
  "__ZThn8_NSt18basic_stringstreamIcSt11char_traitsIcESaIcEED1Ev"      @4582   ; magicseg='TEXT32' len=61
  "__ZNSt18basic_stringstreamIcSt11char_traitsIcESaIcEED0Ev"           @4583   ; magicseg='TEXT32' len=56
  "__ZTv0_n12_NSt18basic_stringstreamIcSt11char_traitsIcESaIcEED0Ev"   @4584   ; magicseg='TEXT32' len=64
  "__ZThn8_NSt18basic_stringstreamIcSt11char_traitsIcESaIcEED0Ev"      @4585   ; magicseg='TEXT32' len=61
  "__ZNKSt18basic_stringstreamIcSt11char_traitsIcESaIcEE5rdbufEv"      @4586   ; magicseg='TEXT32' len=61
  "__ZNKSt18basic_stringstreamIcSt11char_traitsIcESaIcEE3strEv"        @4587   ; magicseg='TEXT32' len=59
  "__ZNSt18basic_stringstreamIcSt11char_traitsIcESaIcEE3strERKSs"      @4588   ; magicseg='TEXT32' len=61
  "__ZTISt18basic_stringstreamIcSt11char_traitsIcESaIcEE"              @4589   ; magicseg='TEXT32' len=53
  "__ZTCSt18basic_stringstreamIcSt11char_traitsIcESaIcEE0_Sd"          @4590   ; magicseg='TEXT32' len=57
  "__ZTCSt18basic_stringstreamIcSt11char_traitsIcESaIcEE0_Si"          @4591   ; magicseg='TEXT32' len=57
  "__ZTCSt18basic_stringstreamIcSt11char_traitsIcESaIcEE8_So"          @4592   ; magicseg='TEXT32' len=57
  "__ZTISt19basic_istringstreamIcSt11char_traitsIcESaIcEE"             @4593   ; magicseg='TEXT32' len=54
  "__ZTCSt19basic_istringstreamIcSt11char_traitsIcESaIcEE0_Si"         @4594   ; magicseg='TEXT32' len=58
  "__ZTSSt19basic_istringstreamIcSt11char_traitsIcESaIcEE"             @4595   ; magicseg='TEXT32' len=54
  "__ZTSSt18basic_stringstreamIcSt11char_traitsIcESaIcEE"              @4596   ; magicseg='TEXT32' len=53
  "__ZNSt11logic_errorC2ERKSs"                                         @4597   ; magicseg='TEXT32' len=26
  "__ZTVSt11logic_error"                                               @4598   ; magicseg='TEXT32' len=20
  "__ZNSt11logic_errorC1ERKSs"                                         @4599   ; magicseg='TEXT32' len=26
  "__ZNSt11logic_errorD2Ev"                                            @4600   ; magicseg='TEXT32' len=23
  "__ZNSt11logic_errorD1Ev"                                            @4601   ; magicseg='TEXT32' len=23
  "__ZNSt11logic_errorD0Ev"                                            @4602   ; magicseg='TEXT32' len=23
  "__ZNKSt11logic_error4whatEv"                                        @4603   ; magicseg='TEXT32' len=27
  "__ZNSt12domain_errorC2ERKSs"                                        @4604   ; magicseg='TEXT32' len=27
  "__ZNSt12domain_errorC1ERKSs"                                        @4605   ; magicseg='TEXT32' len=27
  "__ZNSt16invalid_argumentC2ERKSs"                                    @4606   ; magicseg='TEXT32' len=31
  "__ZNSt16invalid_argumentC1ERKSs"                                    @4607   ; magicseg='TEXT32' len=31
  "__ZNSt12length_errorC2ERKSs"                                        @4608   ; magicseg='TEXT32' len=27
  "__ZNSt12length_errorC1ERKSs"                                        @4609   ; magicseg='TEXT32' len=27
  "__ZNSt12out_of_rangeC2ERKSs"                                        @4610   ; magicseg='TEXT32' len=27
  "__ZNSt12out_of_rangeC1ERKSs"                                        @4611   ; magicseg='TEXT32' len=27
  "__ZNSt13runtime_errorC2ERKSs"                                       @4612   ; magicseg='TEXT32' len=28
  "__ZTVSt13runtime_error"                                             @4613   ; magicseg='TEXT32' len=22
  "__ZNSt13runtime_errorC1ERKSs"                                       @4614   ; magicseg='TEXT32' len=28
  "__ZNSt13runtime_errorD2Ev"                                          @4615   ; magicseg='TEXT32' len=25
  "__ZNSt13runtime_errorD1Ev"                                          @4616   ; magicseg='TEXT32' len=25
  "__ZNSt13runtime_errorD0Ev"                                          @4617   ; magicseg='TEXT32' len=25
  "__ZNKSt13runtime_error4whatEv"                                      @4618   ; magicseg='TEXT32' len=29
  "__ZNSt11range_errorC2ERKSs"                                         @4619   ; magicseg='TEXT32' len=26
  "__ZNSt11range_errorC1ERKSs"                                         @4620   ; magicseg='TEXT32' len=26
  "__ZNSt14overflow_errorC2ERKSs"                                      @4621   ; magicseg='TEXT32' len=29
  "__ZNSt14overflow_errorC1ERKSs"                                      @4622   ; magicseg='TEXT32' len=29
  "__ZNSt15underflow_errorC2ERKSs"                                     @4623   ; magicseg='TEXT32' len=30
  "__ZNSt15underflow_errorC1ERKSs"                                     @4624   ; magicseg='TEXT32' len=30
  "__ZNSaIcEC2Ev"                                                      @4625   ; magicseg='TEXT32' len=13
  "__ZNSaIcEC1Ev"                                                      @4626   ; magicseg='TEXT32' len=13
  "__ZNSaIcEC2ERKS_"                                                   @4627   ; magicseg='TEXT32' len=16
  "__ZNSaIcEC1ERKS_"                                                   @4628   ; magicseg='TEXT32' len=16
  "__ZNSaIcED2Ev"                                                      @4629   ; magicseg='TEXT32' len=13
  "__ZNSaIcED1Ev"                                                      @4630   ; magicseg='TEXT32' len=13
  "__ZNKSaIcE7addressERc"                                              @4631   ; magicseg='TEXT32' len=21
  "__ZNKSaIcE7addressERKc"                                             @4632   ; magicseg='TEXT32' len=22
  "__ZNSt24__default_alloc_templateILb1ELi0EE17_S_freelist_indexEj"    @4633   ; magicseg='TEXT32' len=63
  "__ZNSt24__default_alloc_templateILb1ELi0EE5_LockC2Ev"               @4634   ; magicseg='TEXT32' len=52
  "__ZNSt15_STL_mutex_lock13_M_initializeEv"                           @4635   ; magicseg='TEXT32' len=40
  "__ZNSt24__default_alloc_templateILb1ELi0EE5_LockC1Ev"               @4636   ; magicseg='TEXT32' len=52
  "__ZNSt24__default_alloc_templateILb1ELi0EE5_LockD2Ev"               @4637   ; magicseg='TEXT32' len=52
  "__ZNSt24__default_alloc_templateILb1ELi0EE5_LockD1Ev"               @4638   ; magicseg='TEXT32' len=52
  "__ZNSt24__default_alloc_templateILb1ELi0EE11_S_round_upEj"          @4639   ; magicseg='TEXT32' len=57
  "__ZNSt24__default_alloc_templateILb1ELi0EE8allocateEj"              @4640   ; magicseg='TEXT32' len=53
  "__ZNSt24__default_alloc_templateILb1ELi0EE9_S_refillEj"             @4641   ; magicseg='TEXT32' len=54
  "__ZNKSaIcE8max_sizeEv"                                              @4642   ; magicseg='TEXT32' len=21
  "__ZNSaIcE8allocateEjPKv"                                            @4643   ; magicseg='TEXT32' len=23
  "__ZNSt24__default_alloc_templateILb1ELi0EE10deallocateEPvj"         @4644   ; magicseg='TEXT32' len=58
  "__ZNSaIcE10deallocateEPcj"                                          @4645   ; magicseg='TEXT32' len=25
  "__ZNSaIcE9constructEPcRKc"                                          @4646   ; magicseg='TEXT32' len=25
  "__ZNSaIcE7destroyEPc"                                               @4647   ; magicseg='TEXT32' len=20
  "__ZNSaIwEC2Ev"                                                      @4648   ; magicseg='TEXT32' len=13
  "__ZNSaIwEC1Ev"                                                      @4649   ; magicseg='TEXT32' len=13
  "__ZNSaIwEC2ERKS_"                                                   @4650   ; magicseg='TEXT32' len=16
  "__ZNSaIwEC1ERKS_"                                                   @4651   ; magicseg='TEXT32' len=16
  "__ZNSaIwED2Ev"                                                      @4652   ; magicseg='TEXT32' len=13
  "__ZNSaIwED1Ev"                                                      @4653   ; magicseg='TEXT32' len=13
  "__ZNKSaIwE7addressERw"                                              @4654   ; magicseg='TEXT32' len=21
  "__ZNKSaIwE7addressERKw"                                             @4655   ; magicseg='TEXT32' len=22
  "__ZNKSaIwE8max_sizeEv"                                              @4656   ; magicseg='TEXT32' len=21
  "__ZNSaIwE8allocateEjPKv"                                            @4657   ; magicseg='TEXT32' len=23
  "__ZNSaIwE10deallocateEPwj"                                          @4658   ; magicseg='TEXT32' len=25
  "__ZNSaIwE9constructEPwRKw"                                          @4659   ; magicseg='TEXT32' len=25
  "__ZNSaIwE7destroyEPw"                                               @4660   ; magicseg='TEXT32' len=20
  "__ZNSt24__default_alloc_templateILb1ELi0EE14_S_chunk_allocEjRi"     @4661   ; magicseg='TEXT32' len=62
  "__ZNSt24__default_alloc_templateILb1ELi0EE10reallocateEPvjj"        @4662   ; magicseg='TEXT32' len=59
  "__ZNSt15basic_streambufIcSt11char_traitsIcEE4setgEPcS3_S3_"         @4663   ; magicseg='TEXT32' len=58
  "__ZNSt15basic_streambufIcSt11char_traitsIcEE15_M_pback_createEv"    @4664   ; magicseg='TEXT32' len=63
  "__ZNSt15basic_streambufIcSt11char_traitsIcEE16_M_pback_destroyEv"   @4665   ; magicseg='TEXT32' len=64
  "__ZNSt15basic_streambufIcSt11char_traitsIcEE14_M_in_cur_moveEl"     @4666   ; magicseg='TEXT32' len=62
  "__ZNSt15basic_streambufIcSt11char_traitsIcEE15_M_out_cur_moveEl"    @4667   ; magicseg='TEXT32' len=63
  "__ZNSt15basic_streambufIcSt11char_traitsIcEE15_M_out_buf_sizeEv"    @4668   ; magicseg='TEXT32' len=63
  "__ZNSt15basic_streambufIcSt11char_traitsIcEED2Ev"                   @4669   ; magicseg='TEXT32' len=48
  "__ZTVSt15basic_streambufIcSt11char_traitsIcEE"                      @4670   ; magicseg='TEXT32' len=45
  "__ZNSt15basic_streambufIcSt11char_traitsIcEED1Ev"                   @4671   ; magicseg='TEXT32' len=48
  "__ZNSt15basic_streambufIcSt11char_traitsIcEED0Ev"                   @4672   ; magicseg='TEXT32' len=48
  "__ZNKSt15basic_streambufIcSt11char_traitsIcEE6getlocEv"             @4673   ; magicseg='TEXT32' len=54
  "__ZNSt15basic_streambufIcSt11char_traitsIcEE5imbueERKSt6locale"     @4674   ; magicseg='TEXT32' len=62
  "__ZNSt15basic_streambufIcSt11char_traitsIcEE8pubimbueERKSt6locale"                      @4675   ; magicseg='TEXT32' len=65
  "__ZNSt15basic_streambufIcSt11char_traitsIcEE6setbufEPci"            @4676   ; magicseg='TEXT32' len=55
  "__ZNSt15basic_streambufIcSt11char_traitsIcEE9pubsetbufEPci"         @4677   ; magicseg='TEXT32' len=58
  "__ZNSt15basic_streambufIcSt11char_traitsIcEE7seekoffElSt12_Ios_SeekdirSt13_Ios_Openmode"                              @4678   ; magicseg='TEXT32' len=87
  "__ZNSt15basic_streambufIcSt11char_traitsIcEE10pubseekoffElSt12_Ios_SeekdirSt13_Ios_Openmode"                          @4679   ; magicseg='TEXT32' len=91
  "__ZNSt15basic_streambufIcSt11char_traitsIcEE7seekposESt4fposI11__mbstate_tESt13_Ios_Openmode"                         @4680   ; magicseg='TEXT32' len=92
  "__ZNSt15basic_streambufIcSt11char_traitsIcEE10pubseekposESt4fposI11__mbstate_tESt13_Ios_Openmode"                     @4681   ; magicseg='TEXT32' len=96
  "__ZNSt15basic_streambufIcSt11char_traitsIcEE4syncEv"                @4682   ; magicseg='TEXT32' len=51
  "__ZNSt15basic_streambufIcSt11char_traitsIcEE7pubsyncEv"             @4683   ; magicseg='TEXT32' len=54
  "__ZNKSt15basic_streambufIcSt11char_traitsIcEE4gptrEv"               @4684   ; magicseg='TEXT32' len=52
  "__ZNKSt15basic_streambufIcSt11char_traitsIcEE5egptrEv"              @4685   ; magicseg='TEXT32' len=53
  "__ZNSt15basic_streambufIcSt11char_traitsIcEE9showmanycEv"           @4686   ; magicseg='TEXT32' len=56
  "__ZNSt15basic_streambufIcSt11char_traitsIcEE8in_availEv"            @4687   ; magicseg='TEXT32' len=55
  "__ZNSt15basic_streambufIcSt11char_traitsIcEE9underflowEv"           @4688   ; magicseg='TEXT32' len=56
  "__ZNSt15basic_streambufIcSt11char_traitsIcEE5sgetcEv"               @4689   ; magicseg='TEXT32' len=52
  "__ZNSt15basic_streambufIcSt11char_traitsIcEE6snextcEv"              @4690   ; magicseg='TEXT32' len=53
  "__ZNSt15basic_streambufIcSt11char_traitsIcEE6sbumpcEv"              @4691   ; magicseg='TEXT32' len=53
  "__ZNSt15basic_streambufIcSt11char_traitsIcEE5uflowEv"               @4692   ; magicseg='TEXT32' len=52
  "__ZNSt15basic_streambufIcSt11char_traitsIcEE5sgetnEPci"             @4693   ; magicseg='TEXT32' len=54
  "__ZNSt15basic_streambufIcSt11char_traitsIcEE9pbackfailEi"           @4694   ; magicseg='TEXT32' len=56
  "__ZNSt15basic_streambufIcSt11char_traitsIcEE9sputbackcEc"           @4695   ; magicseg='TEXT32' len=56
  "__ZNSt15basic_streambufIcSt11char_traitsIcEE7sungetcEv"             @4696   ; magicseg='TEXT32' len=54
  "__ZNSt15basic_streambufIcSt11char_traitsIcEE8overflowEi"            @4697   ; magicseg='TEXT32' len=55
  "__ZNSt15basic_streambufIcSt11char_traitsIcEE5sputcEc"               @4698   ; magicseg='TEXT32' len=52
  "__ZNSt15basic_streambufIcSt11char_traitsIcEE5sputnEPKci"            @4699   ; magicseg='TEXT32' len=55
  "__ZNSt15basic_streambufIcSt11char_traitsIcEEC2Ev"                   @4700   ; magicseg='TEXT32' len=48
  "__ZNSt15basic_streambufIcSt11char_traitsIcEEC1Ev"                   @4701   ; magicseg='TEXT32' len=48
  "__ZNKSt15basic_streambufIcSt11char_traitsIcEE5ebackEv"              @4702   ; magicseg='TEXT32' len=53
  "__ZNSt15basic_streambufIcSt11char_traitsIcEE5gbumpEi"               @4703   ; magicseg='TEXT32' len=52
  "__ZNKSt15basic_streambufIcSt11char_traitsIcEE5pbaseEv"              @4704   ; magicseg='TEXT32' len=53
  "__ZNKSt15basic_streambufIcSt11char_traitsIcEE4pptrEv"               @4705   ; magicseg='TEXT32' len=52
  "__ZNKSt15basic_streambufIcSt11char_traitsIcEE5epptrEv"              @4706   ; magicseg='TEXT32' len=53
  "__ZNSt15basic_streambufIcSt11char_traitsIcEE5pbumpEi"               @4707   ; magicseg='TEXT32' len=52
  "__ZNSt15basic_streambufIcSt11char_traitsIcEE4setpEPcS3_"            @4708   ; magicseg='TEXT32' len=55
  "__ZNSt15basic_streambufIcSt11char_traitsIcEE6xsgetnEPci"            @4709   ; magicseg='TEXT32' len=55
  "__ZNSt15basic_streambufIcSt11char_traitsIcEE6xsputnEPKci"           @4710   ; magicseg='TEXT32' len=56
  "__ZNSt15basic_streambufIcSt11char_traitsIcEEC2ERKS2_"               @4711   ; magicseg='TEXT32' len=52
  "__ZNSt15basic_streambufIcSt11char_traitsIcEEC1ERKS2_"               @4712   ; magicseg='TEXT32' len=52
  "__ZNSt15basic_streambufIcSt11char_traitsIcEEaSERKS2_"               @4713   ; magicseg='TEXT32' len=52
  "__ZSt17__copy_streambufsIcSt11char_traitsIcEEiRSt9basic_iosIT_T0_EPSt15basic_streambufIS3_S4_ES9_"                    @4714   ; magicseg='TEXT32' len=97
  "__ZTISt15basic_streambufIcSt11char_traitsIcEE"                      @4715   ; magicseg='TEXT32' len=45
  "__ZTSSt15basic_streambufIcSt11char_traitsIcEE"                      @4716   ; magicseg='TEXT32' len=45
  "__ZNKSs7_M_dataEv"                                                  @4717   ; magicseg='TEXT32' len=17
  "__ZNSs7_M_dataEPc"                                                  @4718   ; magicseg='TEXT32' len=17
  "__ZNKSs6_M_repEv"                                                   @4719   ; magicseg='TEXT32' len=16
  "__ZNKSs9_M_ibeginEv"                                                @4720   ; magicseg='TEXT32' len=19
  "__ZNKSs4sizeEv"                                                     @4721   ; magicseg='TEXT32' len=14
  "__ZNKSs7_M_iendEv"                                                  @4722   ; magicseg='TEXT32' len=17
  "__ZNKSs4_Rep12_M_is_leakedEv"                                       @4723   ; magicseg='TEXT32' len=28
  "__ZNSs7_M_leakEv"                                                   @4724   ; magicseg='TEXT32' len=16
  "__ZNSs12_M_leak_hardEv"                                             @4725   ; magicseg='TEXT32' len=22
  "__ZNKSs8_M_checkEj"                                                 @4726   ; magicseg='TEXT32' len=18
  "__ZNKSs7_M_foldEjj"                                                 @4727   ; magicseg='TEXT32' len=18
  "__ZNSs13_S_copy_charsEPcS_S_"                                       @4728   ; magicseg='TEXT32' len=28
  "__ZNSs13_S_copy_charsEPcN9__gnu_cxx17__normal_iteratorIS_SsEES2_"   @4729   ; magicseg='TEXT32' len=64
  "__ZNSs13_S_copy_charsEPcPKcS1_"                                     @4730   ; magicseg='TEXT32' len=30
  "__ZNSs13_S_copy_charsEPcN9__gnu_cxx17__normal_iteratorIPKcSsEES4_"                      @4731   ; magicseg='TEXT32' len=65
  "__ZNKSs8capacityEv"                                                 @4732   ; magicseg='TEXT32' len=18
  "__ZNKSs4_Rep12_M_is_sharedEv"                                       @4733   ; magicseg='TEXT32' len=28
  "__ZNKSs13get_allocatorEv"                                           @4734   ; magicseg='TEXT32' len=24
  "__ZNSs4_Rep10_M_refdataEv"                                          @4735   ; magicseg='TEXT32' len=25
  "__ZNSs4_Rep10_M_disposeERKSaIcE"                                    @4736   ; magicseg='TEXT32' len=31
  "__ZNSs4_Rep10_M_destroyERKSaIcE"                                    @4737   ; magicseg='TEXT32' len=31
  "__ZNSs4_Rep15_M_set_sharableEv"                                     @4738   ; magicseg='TEXT32' len=30
  "__ZNSs9_M_mutateEjjj"                                               @4739   ; magicseg='TEXT32' len=20
  "__ZNSs4_Rep9_S_createEjRKSaIcE"                                     @4740   ; magicseg='TEXT32' len=30
  "__ZNSs4_Rep13_M_set_leakedEv"                                       @4741   ; magicseg='TEXT32' len=28
  "__ZNSs12_S_empty_repEv"                                             @4742   ; magicseg='TEXT32' len=22
  "__ZNSs12_Alloc_hiderC2EPcRKSaIcE"                                   @4743   ; magicseg='TEXT32' len=32
  "__ZNSs12_Alloc_hiderC1EPcRKSaIcE"                                   @4744   ; magicseg='TEXT32' len=32
  "__ZNSs4_Rep10_M_refcopyEv"                                          @4745   ; magicseg='TEXT32' len=25
  "__ZNSsC2Ev"                                                         @4746   ; magicseg='TEXT32' len=10
  "__ZNSsC1Ev"                                                         @4747   ; magicseg='TEXT32' len=10
  "__ZNSsC2ERKSaIcE"                                                   @4748   ; magicseg='TEXT32' len=16
  "__ZNSs12_S_constructEjcRKSaIcE"                                     @4749   ; magicseg='TEXT32' len=30
  "__ZNSsC1ERKSaIcE"                                                   @4750   ; magicseg='TEXT32' len=16
  "__ZNSs4_Rep7_M_grabERKSaIcES2_"                                     @4751   ; magicseg='TEXT32' len=30
  "__ZNSs4_Rep8_M_cloneERKSaIcEj"                                      @4752   ; magicseg='TEXT32' len=29
  "__ZNSsC2ERKSs"                                                      @4753   ; magicseg='TEXT32' len=13
  "__ZNSsC1ERKSs"                                                      @4754   ; magicseg='TEXT32' len=13
  "__ZNSsC2ERKSsjj"                                                    @4755   ; magicseg='TEXT32' len=15
  "__ZNSs12_S_constructIN9__gnu_cxx17__normal_iteratorIPcSsEEEES2_T_S4_RKSaIcESt20forward_iterator_tag"                  @4756   ; magicseg='TEXT32' len=99
  "__ZNSsC1ERKSsjj"                                                    @4757   ; magicseg='TEXT32' len=15
  "__ZNSsC2ERKSsjjRKSaIcE"                                             @4758   ; magicseg='TEXT32' len=22
  "__ZNSsC1ERKSsjjRKSaIcE"                                             @4759   ; magicseg='TEXT32' len=22
  "__ZNSsC2EPKcjRKSaIcE"                                               @4760   ; magicseg='TEXT32' len=20
  "__ZNSs12_S_constructIPKcEEPcT_S3_RKSaIcESt20forward_iterator_tag"   @4761   ; magicseg='TEXT32' len=64
  "__ZNSsC1EPKcjRKSaIcE"                                               @4762   ; magicseg='TEXT32' len=20
  "__ZNSsC2EPKcRKSaIcE"                                                @4763   ; magicseg='TEXT32' len=19
  "__ZNSsC1EPKcRKSaIcE"                                                @4764   ; magicseg='TEXT32' len=19
  "__ZNSsC2EjcRKSaIcE"                                                 @4765   ; magicseg='TEXT32' len=18
  "__ZNSsC1EjcRKSaIcE"                                                 @4766   ; magicseg='TEXT32' len=18
  "__ZNSsD2Ev"                                                         @4767   ; magicseg='TEXT32' len=10
  "__ZNSsD1Ev"                                                         @4768   ; magicseg='TEXT32' len=10
  "__ZNSsaSERKSs"                                                      @4769   ; magicseg='TEXT32' len=13
  "__ZNSs6assignERKSs"                                                 @4770   ; magicseg='TEXT32' len=18
  "__ZNSs6assignEPKc"                                                  @4771   ; magicseg='TEXT32' len=17
  "__ZNSs6assignEPKcj"                                                 @4772   ; magicseg='TEXT32' len=18
  "__ZNSsaSEPKc"                                                       @4773   ; magicseg='TEXT32' len=12
  "__ZNSs6assignEjc"                                                   @4774   ; magicseg='TEXT32' len=16
  "__ZNSs7replaceEN9__gnu_cxx17__normal_iteratorIPcSsEES2_jc"          @4775   ; magicseg='TEXT32' len=57
  "__ZNSsaSEc"                                                         @4776   ; magicseg='TEXT32' len=10
  "__ZNSs5beginEv"                                                     @4777   ; magicseg='TEXT32' len=14
  "__ZNKSs5beginEv"                                                    @4778   ; magicseg='TEXT32' len=15
  "__ZNSs3endEv"                                                       @4779   ; magicseg='TEXT32' len=12
  "__ZNKSs3endEv"                                                      @4780   ; magicseg='TEXT32' len=13
  "__ZNSs6rbeginEv"                                                    @4781   ; magicseg='TEXT32' len=15
  "__ZNKSs6rbeginEv"                                                   @4782   ; magicseg='TEXT32' len=16
  "__ZNSs4rendEv"                                                      @4783   ; magicseg='TEXT32' len=13
  "__ZNKSs4rendEv"                                                     @4784   ; magicseg='TEXT32' len=14
  "__ZNKSs6lengthEv"                                                   @4785   ; magicseg='TEXT32' len=16
  "__ZNKSs8max_sizeEv"                                                 @4786   ; magicseg='TEXT32' len=18
  "__ZNSs7replaceEN9__gnu_cxx17__normal_iteratorIPcSsEES2_S1_S1_"      @4787   ; magicseg='TEXT32' len=61
  "__ZNSs7replaceEjjPKcj"                                              @4788   ; magicseg='TEXT32' len=21
  "__ZNSs5eraseEjj"                                                    @4789   ; magicseg='TEXT32' len=15
  "__ZNSs6resizeEjc"                                                   @4790   ; magicseg='TEXT32' len=16
  "__ZNSs6appendEjc"                                                   @4791   ; magicseg='TEXT32' len=16
  "__ZNSs6resizeEj"                                                    @4792   ; magicseg='TEXT32' len=15
  "__ZNSs7reserveEj"                                                   @4793   ; magicseg='TEXT32' len=16
  "__ZNSs5clearEv"                                                     @4794   ; magicseg='TEXT32' len=14
  "__ZNKSs5emptyEv"                                                    @4795   ; magicseg='TEXT32' len=15
  "__ZNKSsixEj"                                                        @4796   ; magicseg='TEXT32' len=11
  "__ZNSsixEj"                                                         @4797   ; magicseg='TEXT32' len=10
  "__ZNKSs2atEj"                                                       @4798   ; magicseg='TEXT32' len=12
  "__ZNSs2atEj"                                                        @4799   ; magicseg='TEXT32' len=11
  "__ZNSspLERKSs"                                                      @4800   ; magicseg='TEXT32' len=13
  "__ZNSs6appendERKSs"                                                 @4801   ; magicseg='TEXT32' len=18
  "__ZNSs6appendEPKc"                                                  @4802   ; magicseg='TEXT32' len=17
  "__ZNSs6appendEPKcj"                                                 @4803   ; magicseg='TEXT32' len=18
  "__ZNSspLEPKc"                                                       @4804   ; magicseg='TEXT32' len=12
  "__ZNSspLEc"                                                         @4805   ; magicseg='TEXT32' len=10
  "__ZNSs15_M_replace_safeIN9__gnu_cxx17__normal_iteratorIPcSsEEEERSsS3_S3_T_S5_"          @4806   ; magicseg='TEXT32' len=77
  "__ZNSs6appendERKSsjj"                                               @4807   ; magicseg='TEXT32' len=20
  "__ZNSs15_M_replace_safeIPKcEERSsN9__gnu_cxx17__normal_iteratorIPcSsEES6_T_S7_"          @4808   ; magicseg='TEXT32' len=77
  "__ZNSs9push_backEc"                                                 @4809   ; magicseg='TEXT32' len=18
  "__ZNSs6assignERKSsjj"                                               @4810   ; magicseg='TEXT32' len=20
  "__ZNSs6insertEN9__gnu_cxx17__normal_iteratorIPcSsEEjc"              @4811   ; magicseg='TEXT32' len=53
  "__ZNSs6insertEjRKSs"                                                @4812   ; magicseg='TEXT32' len=19
  "__ZNSs6insertEjRKSsjj"                                              @4813   ; magicseg='TEXT32' len=21
  "__ZNSs6insertEjPKcj"                                                @4814   ; magicseg='TEXT32' len=19
  "__ZNSs6insertEjPKc"                                                 @4815   ; magicseg='TEXT32' len=18
  "__ZNSs6insertEjjc"                                                  @4816   ; magicseg='TEXT32' len=17
  "__ZNSs6insertEN9__gnu_cxx17__normal_iteratorIPcSsEEc"               @4817   ; magicseg='TEXT32' len=52
  "__ZNSs5eraseEN9__gnu_cxx17__normal_iteratorIPcSsEE"                 @4818   ; magicseg='TEXT32' len=50
  "__ZNSs5eraseEN9__gnu_cxx17__normal_iteratorIPcSsEES2_"              @4819   ; magicseg='TEXT32' len=53
  "__ZNSs7replaceEjjRKSs"                                              @4820   ; magicseg='TEXT32' len=21
  "__ZNSs7replaceEjjRKSsjj"                                            @4821   ; magicseg='TEXT32' len=23
  "__ZNSs10_M_replaceIPKcEERSsN9__gnu_cxx17__normal_iteratorIPcSsEES6_T_S7_St18input_iterator_tag"                       @4822   ; magicseg='TEXT32' len=94
  "__ZNSs7replaceEjjPKc"                                               @4823   ; magicseg='TEXT32' len=20
  "__ZNSs7replaceEjjjc"                                                @4824   ; magicseg='TEXT32' len=19
  "__ZNSs7replaceEN9__gnu_cxx17__normal_iteratorIPcSsEES2_PKcj"        @4825   ; magicseg='TEXT32' len=59
  "__ZNSs7replaceEN9__gnu_cxx17__normal_iteratorIPcSsEES2_RKSs"        @4826   ; magicseg='TEXT32' len=59
  "__ZNSs7replaceEN9__gnu_cxx17__normal_iteratorIPcSsEES2_PKc"         @4827   ; magicseg='TEXT32' len=58
  "__ZNSs7replaceEN9__gnu_cxx17__normal_iteratorIPcSsEES2_PKcS4_"      @4828   ; magicseg='TEXT32' len=61
  "__ZNSs7replaceEN9__gnu_cxx17__normal_iteratorIPcSsEES2_S2_S2_"      @4829   ; magicseg='TEXT32' len=61
  "__ZNSs7replaceEN9__gnu_cxx17__normal_iteratorIPcSsEES2_NS0_IPKcSsEES5_"                 @4830   ; magicseg='TEXT32' len=70
  "__ZNKSs4copyEPcjj"                                                  @4831   ; magicseg='TEXT32' len=17
  "__ZNSsC2IN9__gnu_cxx17__normal_iteratorIPcSsEEEET_S4_RKSaIcE"       @4832   ; magicseg='TEXT32' len=60
  "__ZNSsC1IN9__gnu_cxx17__normal_iteratorIPcSsEEEET_S4_RKSaIcE"       @4833   ; magicseg='TEXT32' len=60
  "__ZNSs4swapERSs"                                                    @4834   ; magicseg='TEXT32' len=15
  "__ZNKSs5c_strEv"                                                    @4835   ; magicseg='TEXT32' len=15
  "__ZNSs4_Rep11_S_terminalE"                                          @4836   ; magicseg='TEXT32' len=25
  "__ZNKSs4dataEv"                                                     @4837   ; magicseg='TEXT32' len=14
  "__ZNKSs4findEPKcjj"                                                 @4838   ; magicseg='TEXT32' len=18
  "__ZNKSs4findERKSsj"                                                 @4839   ; magicseg='TEXT32' len=18
  "__ZNKSs4findEPKcj"                                                  @4840   ; magicseg='TEXT32' len=17
  "__ZNKSs4findEcj"                                                    @4841   ; magicseg='TEXT32' len=15
  "__ZNKSs5rfindERKSsj"                                                @4842   ; magicseg='TEXT32' len=19
  "__ZNKSs5rfindEPKcjj"                                                @4843   ; magicseg='TEXT32' len=19
  "__ZNKSs5rfindEPKcj"                                                 @4844   ; magicseg='TEXT32' len=18
  "__ZNKSs5rfindEcj"                                                   @4845   ; magicseg='TEXT32' len=16
  "__ZNKSs13find_first_ofERKSsj"                                       @4846   ; magicseg='TEXT32' len=28
  "__ZNKSs13find_first_ofEPKcjj"                                       @4847   ; magicseg='TEXT32' len=28
  "__ZNKSs13find_first_ofEPKcj"                                        @4848   ; magicseg='TEXT32' len=27
  "__ZNKSs13find_first_ofEcj"                                          @4849   ; magicseg='TEXT32' len=25
  "__ZNKSs12find_last_ofERKSsj"                                        @4850   ; magicseg='TEXT32' len=27
  "__ZNKSs12find_last_ofEPKcjj"                                        @4851   ; magicseg='TEXT32' len=27
  "__ZNKSs12find_last_ofEPKcj"                                         @4852   ; magicseg='TEXT32' len=26
  "__ZNKSs12find_last_ofEcj"                                           @4853   ; magicseg='TEXT32' len=24
  "__ZNKSs17find_first_not_ofERKSsj"                                   @4854   ; magicseg='TEXT32' len=32
  "__ZNKSs17find_first_not_ofEPKcjj"                                   @4855   ; magicseg='TEXT32' len=32
  "__ZNKSs17find_first_not_ofEPKcj"                                    @4856   ; magicseg='TEXT32' len=31
  "__ZNKSs17find_first_not_ofEcj"                                      @4857   ; magicseg='TEXT32' len=29
  "__ZNKSs16find_last_not_ofERKSsj"                                    @4858   ; magicseg='TEXT32' len=31
  "__ZNKSs16find_last_not_ofEPKcjj"                                    @4859   ; magicseg='TEXT32' len=31
  "__ZNKSs16find_last_not_ofEPKcj"                                     @4860   ; magicseg='TEXT32' len=30
  "__ZNKSs16find_last_not_ofEcj"                                       @4861   ; magicseg='TEXT32' len=28
  "__ZNKSs6substrEjj"                                                  @4862   ; magicseg='TEXT32' len=17
  "__ZNKSs7compareERKSs"                                               @4863   ; magicseg='TEXT32' len=20
  "__ZNKSs7compareEjjRKSs"                                             @4864   ; magicseg='TEXT32' len=22
  "__ZNKSs7compareEjjRKSsjj"                                           @4865   ; magicseg='TEXT32' len=24
  "__ZNKSs7compareEPKc"                                                @4866   ; magicseg='TEXT32' len=19
  "__ZNKSs7compareEjjPKc"                                              @4867   ; magicseg='TEXT32' len=21
  "__ZNKSs7compareEjjPKcj"                                             @4868   ; magicseg='TEXT32' len=22
  "__ZNSs4_RepixEj"                                                    @4869   ; magicseg='TEXT32' len=15
  "__ZStplIcSt11char_traitsIcESaIcEESbIT_T0_T1_EPKS3_RKS6_"            @4870   ; magicseg='TEXT32' len=55
  "__ZStplIcSt11char_traitsIcESaIcEESbIT_T0_T1_ES3_RKS6_"              @4871   ; magicseg='TEXT32' len=53
  "__ZStplIcSt11char_traitsIcESaIcEESbIT_T0_T1_ERKS6_S8_"              @4872   ; magicseg='TEXT32' len=53
  "__ZN9__gnu_cxxeqIPcSsEEbRKNS_17__normal_iteratorIT_T0_EES7_"        @4873   ; magicseg='TEXT32' len=59
  "__ZN9__gnu_cxxeqIPKcSsEEbRKNS_17__normal_iteratorIT_T0_EES8_"       @4874   ; magicseg='TEXT32' len=60
  "__ZNSsC2IPcEET_S1_RKSaIcE"                                          @4875   ; magicseg='TEXT32' len=25
  "__ZNSs12_S_constructIPcEES0_T_S1_RKSaIcESt20forward_iterator_tag"   @4876   ; magicseg='TEXT32' len=64
  "__ZNSsC1IPcEET_S1_RKSaIcE"                                          @4877   ; magicseg='TEXT32' len=25
  "__ZNSsC2IPKcEET_S2_RKSaIcE"                                         @4878   ; magicseg='TEXT32' len=26
  "__ZNSsC1IPKcEET_S2_RKSaIcE"                                         @4879   ; magicseg='TEXT32' len=26
  "__ZNSsC2IN9__gnu_cxx17__normal_iteratorIPKcSsEEEET_S5_RKSaIcE"      @4880   ; magicseg='TEXT32' len=61
  "__ZNSs12_S_constructIN9__gnu_cxx17__normal_iteratorIPKcSsEEEEPcT_S6_RKSaIcESt20forward_iterator_tag"                  @4881   ; magicseg='TEXT32' len=99
  "__ZNSsC1IN9__gnu_cxx17__normal_iteratorIPKcSsEEEET_S5_RKSaIcE"      @4882   ; magicseg='TEXT32' len=61
  "__ZNSs10_M_replaceIN9__gnu_cxx17__normal_iteratorIPcSsEEEERSsS3_S3_T_S5_St18input_iterator_tag"                       @4883   ; magicseg='TEXT32' len=94
  "__ZNSs10_M_replaceIN9__gnu_cxx17__normal_iteratorIPKcSsEEEERSsNS1_IPcSsEES7_T_S8_St18input_iterator_tag"              @4884   ; magicseg='TEXT32' len=103
  "__ZNSs10_M_replaceIPcEERSsN9__gnu_cxx17__normal_iteratorIS0_SsEES4_T_S5_St18input_iterator_tag"                       @4885   ; magicseg='TEXT32' len=94
  "__ZNSs15_M_replace_safeIN9__gnu_cxx17__normal_iteratorIPKcSsEEEERSsNS1_IPcSsEES7_T_S8_"                               @4886   ; magicseg='TEXT32' len=86
  "__ZNSs15_M_replace_safeIPcEERSsN9__gnu_cxx17__normal_iteratorIS0_SsEES4_T_S5_"          @4887   ; magicseg='TEXT32' len=77
  "__ZSt13__destroy_auxIPSsEvT_S1_12__false_type"                      @4888   ; magicseg='TEXT32' len=45
  "__ZNSs4nposE"                                                       @4889   ; magicseg='TEXT32' len=12
  "__ZNSs4_Rep11_S_max_sizeE"                                          @4890   ; magicseg='TEXT32' len=25
  "__ZNSt12strstreambufC2Ei"                                           @4891   ; magicseg='TEXT32' len=24
  "__ZTVSt12strstreambuf"                                              @4892   ; magicseg='TEXT32' len=21
  "__ZNSt12strstreambuf8_M_allocEj"                                    @4893   ; magicseg='TEXT32' len=31
  "__ZNSt12strstreambufC1Ei"                                           @4894   ; magicseg='TEXT32' len=24
  "__ZNSt12strstreambufC2EPFPvjEPFvS0_E"                               @4895   ; magicseg='TEXT32' len=36
  "__ZNSt12strstreambufC1EPFPvjEPFvS0_E"                               @4896   ; magicseg='TEXT32' len=36
  "__ZNSt12strstreambufC2EPciS0_"                                      @4897   ; magicseg='TEXT32' len=29
  "__ZNSt12strstreambuf8_M_setupEPcS0_i"                               @4898   ; magicseg='TEXT32' len=36
  "__ZNSt12strstreambufC1EPciS0_"                                      @4899   ; magicseg='TEXT32' len=29
  "__ZNSt12strstreambufC2EPaiS0_"                                      @4900   ; magicseg='TEXT32' len=29
  "__ZNSt12strstreambufC1EPaiS0_"                                      @4901   ; magicseg='TEXT32' len=29
  "__ZNSt12strstreambufC2EPhiS0_"                                      @4902   ; magicseg='TEXT32' len=29
  "__ZNSt12strstreambufC1EPhiS0_"                                      @4903   ; magicseg='TEXT32' len=29
  "__ZNSt12strstreambufC2EPKci"                                        @4904   ; magicseg='TEXT32' len=27
  "__ZNSt12strstreambufC1EPKci"                                        @4905   ; magicseg='TEXT32' len=27
  "__ZNSt12strstreambufC2EPKai"                                        @4906   ; magicseg='TEXT32' len=27
  "__ZNSt12strstreambufC1EPKai"                                        @4907   ; magicseg='TEXT32' len=27
  "__ZNSt12strstreambufC2EPKhi"                                        @4908   ; magicseg='TEXT32' len=27
  "__ZNSt12strstreambufC1EPKhi"                                        @4909   ; magicseg='TEXT32' len=27
  "__ZNSt12strstreambufD2Ev"                                           @4910   ; magicseg='TEXT32' len=24
  "__ZNSt12strstreambuf7_M_freeEPc"                                    @4911   ; magicseg='TEXT32' len=31
  "__ZNSt12strstreambufD1Ev"                                           @4912   ; magicseg='TEXT32' len=24
  "__ZNSt12strstreambufD0Ev"                                           @4913   ; magicseg='TEXT32' len=24
  "__ZNSt12strstreambuf6freezeEb"                                      @4914   ; magicseg='TEXT32' len=29
  "__ZNSt12strstreambuf3strEv"                                         @4915   ; magicseg='TEXT32' len=26
  "__ZNKSt12strstreambuf6pcountEv"                                     @4916   ; magicseg='TEXT32' len=30
  "__ZNSt12strstreambuf8overflowEi"                                    @4917   ; magicseg='TEXT32' len=31
  "__ZNSt12strstreambuf9pbackfailEi"                                   @4918   ; magicseg='TEXT32' len=32
  "__ZNSt12strstreambuf9underflowEv"                                   @4919   ; magicseg='TEXT32' len=32
  "__ZNSt12strstreambuf6setbufEPci"                                    @4920   ; magicseg='TEXT32' len=31
  "__ZNSt12strstreambuf7seekoffElSt12_Ios_SeekdirSt13_Ios_Openmode"    @4921   ; magicseg='TEXT32' len=63
  "__ZNSt12strstreambuf7seekposESt4fposI11__mbstate_tESt13_Ios_Openmode"                   @4922   ; magicseg='TEXT32' len=68
  "__ZNSt10istrstreamC2EPc"                                            @4923   ; magicseg='TEXT32' len=23
  "__ZNSt10istrstreamC1EPc"                                            @4924   ; magicseg='TEXT32' len=23
  "__ZTTSt10istrstream"                                                @4925   ; magicseg='TEXT32' len=19
  "__ZTVSt10istrstream"                                                @4926   ; magicseg='TEXT32' len=19
  "__ZNSt10istrstreamC2EPKc"                                           @4927   ; magicseg='TEXT32' len=24
  "__ZNSt10istrstreamC1EPKc"                                           @4928   ; magicseg='TEXT32' len=24
  "__ZNSt10istrstreamC2EPci"                                           @4929   ; magicseg='TEXT32' len=24
  "__ZNSt10istrstreamC1EPci"                                           @4930   ; magicseg='TEXT32' len=24
  "__ZNSt10istrstreamC2EPKci"                                          @4931   ; magicseg='TEXT32' len=25
  "__ZNSt10istrstreamC1EPKci"                                          @4932   ; magicseg='TEXT32' len=25
  "__ZNSt10istrstreamD2Ev"                                             @4933   ; magicseg='TEXT32' len=22
  "__ZNSt10istrstreamD1Ev"                                             @4934   ; magicseg='TEXT32' len=22
  "__ZTv0_n12_NSt10istrstreamD1Ev"                                     @4935   ; magicseg='TEXT32' len=30
  "__ZNSt10istrstreamD0Ev"                                             @4936   ; magicseg='TEXT32' len=22
  "__ZTv0_n12_NSt10istrstreamD0Ev"                                     @4937   ; magicseg='TEXT32' len=30
  "__ZNKSt10istrstream5rdbufEv"                                        @4938   ; magicseg='TEXT32' len=27
  "__ZNSt10istrstream3strEv"                                           @4939   ; magicseg='TEXT32' len=24
  "__ZNSt10ostrstreamC2Ev"                                             @4940   ; magicseg='TEXT32' len=22
  "__ZNSt10ostrstreamC1Ev"                                             @4941   ; magicseg='TEXT32' len=22
  "__ZTTSt10ostrstream"                                                @4942   ; magicseg='TEXT32' len=19
  "__ZTVSt10ostrstream"                                                @4943   ; magicseg='TEXT32' len=19
  "__ZNSt10ostrstreamC2EPciSt13_Ios_Openmode"                          @4944   ; magicseg='TEXT32' len=41
  "__ZNSt10ostrstreamC1EPciSt13_Ios_Openmode"                          @4945   ; magicseg='TEXT32' len=41
  "__ZNSt10ostrstreamD2Ev"                                             @4946   ; magicseg='TEXT32' len=22
  "__ZNSt10ostrstreamD1Ev"                                             @4947   ; magicseg='TEXT32' len=22
  "__ZTv0_n12_NSt10ostrstreamD1Ev"                                     @4948   ; magicseg='TEXT32' len=30
  "__ZNSt10ostrstreamD0Ev"                                             @4949   ; magicseg='TEXT32' len=22
  "__ZTv0_n12_NSt10ostrstreamD0Ev"                                     @4950   ; magicseg='TEXT32' len=30
  "__ZNKSt10ostrstream5rdbufEv"                                        @4951   ; magicseg='TEXT32' len=27
  "__ZNSt10ostrstream6freezeEb"                                        @4952   ; magicseg='TEXT32' len=27
  "__ZNSt10ostrstream3strEv"                                           @4953   ; magicseg='TEXT32' len=24
  "__ZNKSt10ostrstream6pcountEv"                                       @4954   ; magicseg='TEXT32' len=28
  "__ZNSt9strstreamC2Ev"                                               @4955   ; magicseg='TEXT32' len=20
  "__ZNSt9strstreamC1Ev"                                               @4956   ; magicseg='TEXT32' len=20
  "__ZTTSt9strstream"                                                  @4957   ; magicseg='TEXT32' len=17
  "__ZTVSt9strstream"                                                  @4958   ; magicseg='TEXT32' len=17
  "__ZNSt9strstreamC2EPciSt13_Ios_Openmode"                            @4959   ; magicseg='TEXT32' len=39
  "__ZNSt9strstreamC1EPciSt13_Ios_Openmode"                            @4960   ; magicseg='TEXT32' len=39
  "__ZNSt9strstreamD2Ev"                                               @4961   ; magicseg='TEXT32' len=20
  "__ZNSt9strstreamD1Ev"                                               @4962   ; magicseg='TEXT32' len=20
  "__ZTv0_n12_NSt9strstreamD1Ev"                                       @4963   ; magicseg='TEXT32' len=28
  "__ZThn8_NSt9strstreamD1Ev"                                          @4964   ; magicseg='TEXT32' len=25
  "__ZNSt9strstreamD0Ev"                                               @4965   ; magicseg='TEXT32' len=20
  "__ZTv0_n12_NSt9strstreamD0Ev"                                       @4966   ; magicseg='TEXT32' len=28
  "__ZThn8_NSt9strstreamD0Ev"                                          @4967   ; magicseg='TEXT32' len=25
  "__ZNKSt9strstream5rdbufEv"                                          @4968   ; magicseg='TEXT32' len=25
  "__ZNSt9strstream6freezeEb"                                          @4969   ; magicseg='TEXT32' len=25
  "__ZNKSt9strstream6pcountEv"                                         @4970   ; magicseg='TEXT32' len=26
  "__ZNSt9strstream3strEv"                                             @4971   ; magicseg='TEXT32' len=22
  "__ZTISt9strstream"                                                  @4972   ; magicseg='TEXT32' len=17
  "__ZTCSt9strstream0_Sd"                                              @4973   ; magicseg='TEXT32' len=21
  "__ZTCSt9strstream0_Si"                                              @4974   ; magicseg='TEXT32' len=21
  "__ZTCSt9strstream8_So"                                              @4975   ; magicseg='TEXT32' len=21
  "__ZTISt10ostrstream"                                                @4976   ; magicseg='TEXT32' len=19
  "__ZTCSt10ostrstream0_So"                                            @4977   ; magicseg='TEXT32' len=23
  "__ZTISt10istrstream"                                                @4978   ; magicseg='TEXT32' len=19
  "__ZTCSt10istrstream0_Si"                                            @4979   ; magicseg='TEXT32' len=23
  "__ZTISt12strstreambuf"                                              @4980   ; magicseg='TEXT32' len=21
  "__ZTSSt12strstreambuf"                                              @4981   ; magicseg='TEXT32' len=21
  "__ZTSSt10istrstream"                                                @4982   ; magicseg='TEXT32' len=19
  "__ZTSSt10ostrstream"                                                @4983   ; magicseg='TEXT32' len=19
  "__ZTSSt9strstream"                                                  @4984   ; magicseg='TEXT32' len=17
  "__ZSt17__gslice_to_indexjRKSt8valarrayIjES2_RS0_"                   @4985   ; magicseg='TEXT32' len=48
  "__ZNKSt8valarrayIjE4sizeEv"                                         @4986   ; magicseg='TEXT32' len=26
  "__ZNSt6gslice8_IndexerC2EjRKSt8valarrayIjES4_"                      @4987   ; magicseg='TEXT32' len=45
  "__ZNSt8valarrayIjEC1ERKS0_"                                         @4988   ; magicseg='TEXT32' len=26
  "__ZNSt8valarrayIjEC1Ej"                                             @4989   ; magicseg='TEXT32' len=22
  "__ZNSt8valarrayIjED1Ev"                                             @4990   ; magicseg='TEXT32' len=22
  "__ZNSt6gslice8_IndexerC1EjRKSt8valarrayIjES4_"                      @4991   ; magicseg='TEXT32' len=45
  "__ZNSt8valarrayIjED2Ev"                                             @4992   ; magicseg='TEXT32' len=22
  "__ZNSt8valarrayIjEC2ERKS0_"                                         @4993   ; magicseg='TEXT32' len=26
  "__ZSt15__valarray_copyIjEvPKT_jPS0_"                                @4994   ; magicseg='TEXT32' len=35
  "__ZNSt8valarrayIjEC2Ej"                                             @4995   ; magicseg='TEXT32' len=22
  "__ZSt15__valarray_fillIjEvPT_jRKS0_"                                @4996   ; magicseg='TEXT32' len=35
  "__ZNSt8valarrayIjEixEj"                                             @4997   ; magicseg='TEXT32' len=22
  "__ZN9__gnu_cxx27__verbose_terminate_handlerEv"                      @4998   ; magicseg='TEXT32' len=45
  "__ZNKSt7collateIcE10_M_compareEPKcS2_"                              @4999   ; magicseg='TEXT32' len=37
  "__ZNKSt7collateIcE12_M_transformEPcPKcj"                            @5000   ; magicseg='TEXT32' len=39
  "__ZNSt12ctype_bynameIcEC2EPKcj"                                     @5001   ; magicseg='TEXT32' len=30
  "__ZNSt12ctype_bynameIcEC1EPKcj"                                     @5002   ; magicseg='TEXT32' len=30
  "__ZNKSt8messagesIcE6do_getEiiiRKSs"                                 @5003   ; magicseg='TEXT32' len=34
  "__ZNSt10money_base20_S_construct_patternEccc"                       @5004   ; magicseg='TEXT32' len=44
  "__ZNSt10moneypunctIcLb1EE24_M_initialize_moneypunctEPiPKc"          @5005   ; magicseg='TEXT32' len=57
  "__ZNSt10moneypunctIcLb0EE24_M_initialize_moneypunctEPiPKc"          @5006   ; magicseg='TEXT32' len=57
  "__ZNSt10moneypunctIcLb1EED2Ev"                                      @5007   ; magicseg='TEXT32' len=29
  "__ZNSt10moneypunctIcLb1EED1Ev"                                      @5008   ; magicseg='TEXT32' len=29
  "__ZNSt10moneypunctIcLb1EED0Ev"                                      @5009   ; magicseg='TEXT32' len=29
  "__ZNSt10moneypunctIcLb0EED2Ev"                                      @5010   ; magicseg='TEXT32' len=29
  "__ZNSt10moneypunctIcLb0EED1Ev"                                      @5011   ; magicseg='TEXT32' len=29
  "__ZNSt10moneypunctIcLb0EED0Ev"                                      @5012   ; magicseg='TEXT32' len=29
  "__ZNSt8numpunctIcE22_M_initialize_numpunctEPi"                      @5013   ; magicseg='TEXT32' len=45
  "__ZNSt8numpunctIcED2Ev"                                             @5014   ; magicseg='TEXT32' len=22
  "__ZNSt8numpunctIcED1Ev"                                             @5015   ; magicseg='TEXT32' len=22
  "__ZNSt8numpunctIcED0Ev"                                             @5016   ; magicseg='TEXT32' len=22
  "__ZNKSt11__timepunctIcE6_M_putEPcjPKcPK2tm"                         @5017   ; magicseg='TEXT32' len=42
  "__ZNSt11__timepunctIcE23_M_initialize_timepunctEPi"                 @5018   ; magicseg='TEXT32' len=50
  "__ZNSt12__basic_fileIcEC2EP7_fmutex"                                @5019   ; magicseg='TEXT32' len=35
  "__ZNSt12__basic_fileIcEC1EP7_fmutex"                                @5020   ; magicseg='TEXT32' len=35
  "__ZNSt12__basic_fileIcED2Ev"                                        @5021   ; magicseg='TEXT32' len=27
  "__ZNSt12__basic_fileIcE5closeEv"                                    @5022   ; magicseg='TEXT32' len=31
  "__ZNSt12__basic_fileIcED1Ev"                                        @5023   ; magicseg='TEXT32' len=27
  "__ZNSt12__basic_fileIcE12_M_open_modeESt13_Ios_OpenmodeRiS2_Pc"     @5024   ; magicseg='TEXT32' len=62
  "__ZNSt12__basic_fileIcE8sys_openEP7__sFILESt13_Ios_Openmode"        @5025   ; magicseg='TEXT32' len=59
  "__ZNKSt12__basic_fileIcE7is_openEv"                                 @5026   ; magicseg='TEXT32' len=34
  "__ZNSt12__basic_fileIcE8sys_openEiSt13_Ios_Openmodeb"               @5027   ; magicseg='TEXT32' len=52
  "__ZNSt12__basic_fileIcE8sys_getcEv"                                 @5028   ; magicseg='TEXT32' len=34
  "__ZNSt12__basic_fileIcE10sys_ungetcEi"                              @5029   ; magicseg='TEXT32' len=37
  "__ZNSt12__basic_fileIcE4openEPKcSt13_Ios_Openmodei"                 @5030   ; magicseg='TEXT32' len=50
  "__ZNSt12__basic_fileIcE2fdEv"                                       @5031   ; magicseg='TEXT32' len=28
  "__ZNSt12__basic_fileIcE6xsgetnEPci"                                 @5032   ; magicseg='TEXT32' len=34
  "__ZNSt12__basic_fileIcE6xsputnEPKci"                                @5033   ; magicseg='TEXT32' len=35
  "__ZNSt12__basic_fileIcE7seekoffElSt12_Ios_SeekdirSt13_Ios_Openmode"                     @5034   ; magicseg='TEXT32' len=66
  "__ZNSt12__basic_fileIcE7seekposElSt13_Ios_Openmode"                 @5035   ; magicseg='TEXT32' len=50
  "__ZNSt12__basic_fileIcE4syncEv"                                     @5036   ; magicseg='TEXT32' len=30
  "__ZNSt12__basic_fileIcE16showmanyc_helperEv"                        @5037   ; magicseg='TEXT32' len=43
  "__ZSt14__convert_to_vIlEvPKcRT_RSt12_Ios_IostateRKPii"              @5038   ; magicseg='TEXT32' len=53
  "__ZSt14__convert_to_vImEvPKcRT_RSt12_Ios_IostateRKPii"              @5039   ; magicseg='TEXT32' len=53
  "__ZSt14__convert_to_vIxEvPKcRT_RSt12_Ios_IostateRKPii"              @5040   ; magicseg='TEXT32' len=53
  "__ZSt14__convert_to_vIyEvPKcRT_RSt12_Ios_IostateRKPii"              @5041   ; magicseg='TEXT32' len=53
  "__ZSt14__convert_to_vIfEvPKcRT_RSt12_Ios_IostateRKPii"              @5042   ; magicseg='TEXT32' len=53
  "__ZSt14__convert_to_vIdEvPKcRT_RSt12_Ios_IostateRKPii"              @5043   ; magicseg='TEXT32' len=53
  "__ZSt14__convert_to_vIeEvPKcRT_RSt12_Ios_IostateRKPii"              @5044   ; magicseg='TEXT32' len=53
  "__ZNSt6locale5facet18_S_create_c_localeERPiPKcS1_"                  @5045   ; magicseg='TEXT32' len=49
  "__ZNSt6locale5facet19_S_destroy_c_localeERPi"                       @5046   ; magicseg='TEXT32' len=44
  "__ZNSt6locale5facet17_S_clone_c_localeERPi"                         @5047   ; magicseg='TEXT32' len=42
  "___cxa_demangle"                                                    @5048   ; magicseg='TEXT32' len=15
  "__ZdlPv"                                                            @5049   ; magicseg='TEXT32' len=7
  "__ZdlPvRKSt9nothrow_t"                                              @5050   ; magicseg='TEXT32' len=21
  "__ZdaPv"                                                            @5051   ; magicseg='TEXT32' len=7
  "__ZdaPvRKSt9nothrow_t"                                              @5052   ; magicseg='TEXT32' len=21
  "___cxa_dyn_string_init"                                             @5053   ; magicseg='TEXT32' len=22
  "___cxa_dyn_string_new"                                              @5054   ; magicseg='TEXT32' len=21
  "___cxa_dyn_string_delete"                                           @5055   ; magicseg='TEXT32' len=24
  "___cxa_dyn_string_release"                                          @5056   ; magicseg='TEXT32' len=25
  "___cxa_dyn_string_resize"                                           @5057   ; magicseg='TEXT32' len=24
  "___cxa_dyn_string_clear"                                            @5058   ; magicseg='TEXT32' len=23
  "___cxa_dyn_string_copy"                                             @5059   ; magicseg='TEXT32' len=22
  "___cxa_dyn_string_copy_cstr"                                        @5060   ; magicseg='TEXT32' len=27
  "___cxa_dyn_string_prepend"                                          @5061   ; magicseg='TEXT32' len=25
  "___cxa_dyn_string_insert"                                           @5062   ; magicseg='TEXT32' len=24
  "___cxa_dyn_string_prepend_cstr"                                     @5063   ; magicseg='TEXT32' len=30
  "___cxa_dyn_string_insert_cstr"                                      @5064   ; magicseg='TEXT32' len=29
  "___cxa_dyn_string_insert_char"                                      @5065   ; magicseg='TEXT32' len=29
  "___cxa_dyn_string_append"                                           @5066   ; magicseg='TEXT32' len=24
  "___cxa_dyn_string_append_cstr"                                      @5067   ; magicseg='TEXT32' len=29
  "___cxa_dyn_string_append_char"                                      @5068   ; magicseg='TEXT32' len=29
  "___cxa_dyn_string_substring"                                        @5069   ; magicseg='TEXT32' len=27
  "___cxa_dyn_string_eq"                                               @5070   ; magicseg='TEXT32' len=20
  "___cxa_allocate_exception"                                          @5071   ; magicseg='TEXT32' len=25
  "___cxa_free_exception"                                              @5072   ; magicseg='TEXT32' len=21
  "___cxa_bad_cast"                                                    @5073   ; magicseg='TEXT32' len=15
  "___cxa_bad_typeid"                                                  @5074   ; magicseg='TEXT32' len=17
  "___cxa_begin_catch"                                                 @5075   ; magicseg='TEXT32' len=18
  "___cxa_end_catch"                                                   @5076   ; magicseg='TEXT32' len=16
  "__ZSt18uncaught_exceptionv"                                         @5077   ; magicseg='TEXT32' len=26
  "__ZNSt9exceptionD2Ev"                                               @5078   ; magicseg='TEXT32' len=20
  "__ZTVSt9exception"                                                  @5079   ; magicseg='TEXT32' len=17
  "__ZNSt9exceptionD1Ev"                                               @5080   ; magicseg='TEXT32' len=20
  "__ZNSt9exceptionD0Ev"                                               @5081   ; magicseg='TEXT32' len=20
  "__ZNSt13bad_exceptionD2Ev"                                          @5082   ; magicseg='TEXT32' len=25
  "__ZTVSt13bad_exception"                                             @5083   ; magicseg='TEXT32' len=22
  "__ZNSt13bad_exceptionD1Ev"                                          @5084   ; magicseg='TEXT32' len=25
  "__ZNSt13bad_exceptionD0Ev"                                          @5085   ; magicseg='TEXT32' len=25
  "__ZNKSt9exception4whatEv"                                           @5086   ; magicseg='TEXT32' len=24
  "___cxa_get_globals_fast"                                            @5087   ; magicseg='TEXT32' len=23
  "___cxa_get_globals"                                                 @5088   ; magicseg='TEXT32' len=18
  "___gxx_personality_v0"                                              @5089   ; magicseg='TEXT32' len=21
  "___cxa_call_unexpected"                                             @5090   ; magicseg='TEXT32' len=22
  "__ZSt9terminatev"                                                   @5091   ; magicseg='TEXT32' len=16
  "__ZN10__cxxabiv111__terminateEPFvvE"                                @5092   ; magicseg='TEXT32' len=35
  "__ZN10__cxxabiv112__unexpectedEPFvvE"                               @5093   ; magicseg='TEXT32' len=36
  "__ZSt10unexpectedv"                                                 @5094   ; magicseg='TEXT32' len=18
  "__ZSt13set_terminatePFvvE"                                          @5095   ; magicseg='TEXT32' len=25
  "__ZSt14set_unexpectedPFvvE"                                         @5096   ; magicseg='TEXT32' len=26
  "___cxa_throw"                                                       @5097   ; magicseg='TEXT32' len=12
  "___cxa_rethrow"                                                     @5098   ; magicseg='TEXT32' len=14
  "___cxa_current_exception_type"                                      @5099   ; magicseg='TEXT32' len=29
  "___cxa_guard_acquire"                                               @5100   ; magicseg='TEXT32' len=20
  "___cxa_guard_release"                                               @5101   ; magicseg='TEXT32' len=20
  "___cxa_guard_abort"                                                 @5102   ; magicseg='TEXT32' len=18
  "__ZSt7nothrow"                                                      @5103   ; magicseg='TEXT32' len=13
  "__ZSt15set_new_handlerPFvvE"                                        @5104   ; magicseg='TEXT32' len=27
  "__ZNSt9bad_allocD2Ev"                                               @5105   ; magicseg='TEXT32' len=20
  "__ZTVSt9bad_alloc"                                                  @5106   ; magicseg='TEXT32' len=17
  "__ZNSt9bad_allocD1Ev"                                               @5107   ; magicseg='TEXT32' len=20
  "__ZNSt9bad_allocD0Ev"                                               @5108   ; magicseg='TEXT32' len=20
  "__Znwj"                                                             @5109   ; magicseg='TEXT32' len=6
  "__ZnwjRKSt9nothrow_t"                                               @5110   ; magicseg='TEXT32' len=20
  "__Znaj"                                                             @5111   ; magicseg='TEXT32' len=6
  "__ZnajRKSt9nothrow_t"                                               @5112   ; magicseg='TEXT32' len=20
  "___cxa_pure_virtual"                                                @5113   ; magicseg='TEXT32' len=19
  "__ZNSt9type_infoD2Ev"                                               @5114   ; magicseg='TEXT32' len=20
  "__ZTVSt9type_info"                                                  @5115   ; magicseg='TEXT32' len=17
  "__ZNSt9type_infoD1Ev"                                               @5116   ; magicseg='TEXT32' len=20
  "__ZNSt9type_infoD0Ev"                                               @5117   ; magicseg='TEXT32' len=20
  "__ZNSt8bad_castD2Ev"                                                @5118   ; magicseg='TEXT32' len=19
  "__ZTVSt8bad_cast"                                                   @5119   ; magicseg='TEXT32' len=16
  "__ZNSt8bad_castD1Ev"                                                @5120   ; magicseg='TEXT32' len=19
  "__ZNSt8bad_castD0Ev"                                                @5121   ; magicseg='TEXT32' len=19
  "__ZNSt10bad_typeidD2Ev"                                             @5122   ; magicseg='TEXT32' len=22
  "__ZTVSt10bad_typeid"                                                @5123   ; magicseg='TEXT32' len=19
  "__ZNSt10bad_typeidD1Ev"                                             @5124   ; magicseg='TEXT32' len=22
  "__ZNSt10bad_typeidD0Ev"                                             @5125   ; magicseg='TEXT32' len=22
  "__ZNKSt9type_infoeqERKS_"                                           @5126   ; magicseg='TEXT32' len=24
  "__ZNKSt9type_info14__is_pointer_pEv"                                @5127   ; magicseg='TEXT32' len=35
  "__ZNKSt9type_info15__is_function_pEv"                               @5128   ; magicseg='TEXT32' len=36
  "__ZNKSt9type_info10__do_catchEPKS_PPvj"                             @5129   ; magicseg='TEXT32' len=38
  "__ZNKSt9type_info11__do_upcastEPKN10__cxxabiv117__class_type_infoEPPv"                  @5130   ; magicseg='TEXT32' len=69
  "__ZN10__cxxabiv117__class_type_infoD2Ev"                            @5131   ; magicseg='TEXT32' len=39
  "__ZTVN10__cxxabiv117__class_type_infoE"                             @5132   ; magicseg='TEXT32' len=38
  "__ZN10__cxxabiv117__class_type_infoD1Ev"                            @5133   ; magicseg='TEXT32' len=39
  "__ZN10__cxxabiv117__class_type_infoD0Ev"                            @5134   ; magicseg='TEXT32' len=39
  "__ZN10__cxxabiv120__si_class_type_infoD2Ev"                         @5135   ; magicseg='TEXT32' len=42
  "__ZTVN10__cxxabiv120__si_class_type_infoE"                          @5136   ; magicseg='TEXT32' len=41
  "__ZN10__cxxabiv120__si_class_type_infoD1Ev"                         @5137   ; magicseg='TEXT32' len=42
  "__ZN10__cxxabiv120__si_class_type_infoD0Ev"                         @5138   ; magicseg='TEXT32' len=42
  "__ZN10__cxxabiv121__vmi_class_type_infoD2Ev"                        @5139   ; magicseg='TEXT32' len=43
  "__ZTVN10__cxxabiv121__vmi_class_type_infoE"                         @5140   ; magicseg='TEXT32' len=42
  "__ZN10__cxxabiv121__vmi_class_type_infoD1Ev"                        @5141   ; magicseg='TEXT32' len=43
  "__ZN10__cxxabiv121__vmi_class_type_infoD0Ev"                        @5142   ; magicseg='TEXT32' len=43
  "__ZNK10__cxxabiv117__class_type_info10__do_catchEPKSt9type_infoPPvj"                    @5143   ; magicseg='TEXT32' len=67
  "__ZNK10__cxxabiv117__class_type_info11__do_upcastEPKS0_PPv"         @5144   ; magicseg='TEXT32' len=58
  "__ZNK10__cxxabiv117__class_type_info20__do_find_public_srcEiPKvPKS0_S2_"                @5145   ; magicseg='TEXT32' len=71
  "__ZNK10__cxxabiv120__si_class_type_info20__do_find_public_srcEiPKvPKNS_17__class_type_infoES2_"                       @5146   ; magicseg='TEXT32' len=94
  "__ZNK10__cxxabiv121__vmi_class_type_info20__do_find_public_srcEiPKvPKNS_17__class_type_infoES2_"                      @5147   ; magicseg='TEXT32' len=95
  "__ZNK10__cxxabiv117__class_type_info12__do_dyncastEiNS0_10__sub_kindEPKS0_PKvS3_S5_RNS0_16__dyncast_resultE"          @5148   ; magicseg='TEXT32' len=107
  "__ZNK10__cxxabiv120__si_class_type_info12__do_dyncastEiNS_17__class_type_info10__sub_kindEPKS1_PKvS4_S6_RNS1_16__dyncast_resultE"                          @5149   ; magicseg='TEXT32' len=128
  "__ZNK10__cxxabiv121__vmi_class_type_info12__do_dyncastEiNS_17__class_type_info10__sub_kindEPKS1_PKvS4_S6_RNS1_16__dyncast_resultE"                         @5150   ; magicseg='TEXT32' len=129
  "__ZNK10__cxxabiv117__class_type_info11__do_upcastEPKS0_PKvRNS0_15__upcast_resultE"      @5151   ; magicseg='TEXT32' len=81
  "__ZNK10__cxxabiv120__si_class_type_info11__do_upcastEPKNS_17__class_type_infoEPKvRNS1_15__upcast_resultE"             @5152   ; magicseg='TEXT32' len=104
  "__ZNK10__cxxabiv121__vmi_class_type_info11__do_upcastEPKNS_17__class_type_infoEPKvRNS1_15__upcast_resultE"            @5153   ; magicseg='TEXT32' len=105
  "___dynamic_cast"                                                    @5154   ; magicseg='TEXT32' len=15
  "__ZTIN10__cxxabiv121__vmi_class_type_infoE"                         @5155   ; magicseg='TEXT32' len=42
  "__ZTIN10__cxxabiv120__si_class_type_infoE"                          @5156   ; magicseg='TEXT32' len=41
  "__ZTIN10__cxxabiv117__class_type_infoE"                             @5157   ; magicseg='TEXT32' len=38
  "__ZTISt9type_info"                                                  @5158   ; magicseg='TEXT32' len=17
  "__ZTSSt9type_info"                                                  @5159   ; magicseg='TEXT32' len=17
  "__ZTSN10__cxxabiv117__class_type_infoE"                             @5160   ; magicseg='TEXT32' len=38
  "__ZTSN10__cxxabiv120__si_class_type_infoE"                          @5161   ; magicseg='TEXT32' len=41
  "__ZTSN10__cxxabiv121__vmi_class_type_infoE"                         @5162   ; magicseg='TEXT32' len=42
  "__ZNKSt9type_info6beforeERKS_"                                      @5163   ; magicseg='TEXT32' len=29
  "__ZN10__cxxabiv123__fundamental_type_infoD2Ev"                      @5164   ; magicseg='TEXT32' len=45
  "__ZTVN10__cxxabiv123__fundamental_type_infoE"                       @5165   ; magicseg='TEXT32' len=44
  "__ZN10__cxxabiv123__fundamental_type_infoD1Ev"                      @5166   ; magicseg='TEXT32' len=45
  "__ZN10__cxxabiv123__fundamental_type_infoD0Ev"                      @5167   ; magicseg='TEXT32' len=45
  "__ZN10__cxxabiv117__array_type_infoD2Ev"                            @5168   ; magicseg='TEXT32' len=39
  "__ZTVN10__cxxabiv117__array_type_infoE"                             @5169   ; magicseg='TEXT32' len=38
  "__ZN10__cxxabiv117__array_type_infoD1Ev"                            @5170   ; magicseg='TEXT32' len=39
  "__ZN10__cxxabiv117__array_type_infoD0Ev"                            @5171   ; magicseg='TEXT32' len=39
  "__ZN10__cxxabiv120__function_type_infoD2Ev"                         @5172   ; magicseg='TEXT32' len=42
  "__ZTVN10__cxxabiv120__function_type_infoE"                          @5173   ; magicseg='TEXT32' len=41
  "__ZN10__cxxabiv120__function_type_infoD1Ev"                         @5174   ; magicseg='TEXT32' len=42
  "__ZN10__cxxabiv120__function_type_infoD0Ev"                         @5175   ; magicseg='TEXT32' len=42
  "__ZN10__cxxabiv116__enum_type_infoD2Ev"                             @5176   ; magicseg='TEXT32' len=38
  "__ZTVN10__cxxabiv116__enum_type_infoE"                              @5177   ; magicseg='TEXT32' len=37
  "__ZN10__cxxabiv116__enum_type_infoD1Ev"                             @5178   ; magicseg='TEXT32' len=38
  "__ZN10__cxxabiv116__enum_type_infoD0Ev"                             @5179   ; magicseg='TEXT32' len=38
  "__ZN10__cxxabiv117__pbase_type_infoD2Ev"                            @5180   ; magicseg='TEXT32' len=39
  "__ZTVN10__cxxabiv117__pbase_type_infoE"                             @5181   ; magicseg='TEXT32' len=38
  "__ZN10__cxxabiv117__pbase_type_infoD1Ev"                            @5182   ; magicseg='TEXT32' len=39
  "__ZN10__cxxabiv117__pbase_type_infoD0Ev"                            @5183   ; magicseg='TEXT32' len=39
  "__ZN10__cxxabiv119__pointer_type_infoD2Ev"                          @5184   ; magicseg='TEXT32' len=41
  "__ZTVN10__cxxabiv119__pointer_type_infoE"                           @5185   ; magicseg='TEXT32' len=40
  "__ZN10__cxxabiv119__pointer_type_infoD1Ev"                          @5186   ; magicseg='TEXT32' len=41
  "__ZN10__cxxabiv119__pointer_type_infoD0Ev"                          @5187   ; magicseg='TEXT32' len=41
  "__ZN10__cxxabiv129__pointer_to_member_type_infoD2Ev"                @5188   ; magicseg='TEXT32' len=51
  "__ZTVN10__cxxabiv129__pointer_to_member_type_infoE"                 @5189   ; magicseg='TEXT32' len=50
  "__ZN10__cxxabiv129__pointer_to_member_type_infoD1Ev"                @5190   ; magicseg='TEXT32' len=51
  "__ZN10__cxxabiv129__pointer_to_member_type_infoD0Ev"                @5191   ; magicseg='TEXT32' len=51
  "__ZNK10__cxxabiv119__pointer_type_info14__is_pointer_pEv"           @5192   ; magicseg='TEXT32' len=56
  "__ZNK10__cxxabiv120__function_type_info15__is_function_pEv"         @5193   ; magicseg='TEXT32' len=58
  "__ZNK10__cxxabiv117__pbase_type_info10__do_catchEPKSt9type_infoPPvj"                    @5194   ; magicseg='TEXT32' len=67
  "__ZNK10__cxxabiv119__pointer_type_info15__pointer_catchEPKNS_17__pbase_type_infoEPPvj"                                @5195   ; magicseg='TEXT32' len=85
  "__ZTIv"                                                             @5196   ; magicseg='TEXT32' len=6
  "__ZNK10__cxxabiv129__pointer_to_member_type_info15__pointer_catchEPKNS_17__pbase_type_infoEPPvj"                      @5197   ; magicseg='TEXT32' len=95
  "__ZTIN10__cxxabiv129__pointer_to_member_type_infoE"                 @5198   ; magicseg='TEXT32' len=50
  "__ZTIN10__cxxabiv119__pointer_type_infoE"                           @5199   ; magicseg='TEXT32' len=40
  "__ZTIN10__cxxabiv117__pbase_type_infoE"                             @5200   ; magicseg='TEXT32' len=38
  "__ZNK10__cxxabiv117__pbase_type_info15__pointer_catchEPKS0_PPvj"    @5201   ; magicseg='TEXT32' len=63
  "__ZTIN10__cxxabiv116__enum_type_infoE"                              @5202   ; magicseg='TEXT32' len=37
  "__ZTIN10__cxxabiv120__function_type_infoE"                          @5203   ; magicseg='TEXT32' len=41
  "__ZTIN10__cxxabiv117__array_type_infoE"                             @5204   ; magicseg='TEXT32' len=38
  "__ZTIN10__cxxabiv123__fundamental_type_infoE"                       @5205   ; magicseg='TEXT32' len=44
  "__ZTSN10__cxxabiv123__fundamental_type_infoE"                       @5206   ; magicseg='TEXT32' len=44
  "__ZTSN10__cxxabiv117__array_type_infoE"                             @5207   ; magicseg='TEXT32' len=38
  "__ZTSN10__cxxabiv120__function_type_infoE"                          @5208   ; magicseg='TEXT32' len=41
  "__ZTSN10__cxxabiv116__enum_type_infoE"                              @5209   ; magicseg='TEXT32' len=37
  "__ZTSN10__cxxabiv117__pbase_type_infoE"                             @5210   ; magicseg='TEXT32' len=38
  "__ZTSN10__cxxabiv119__pointer_type_infoE"                           @5211   ; magicseg='TEXT32' len=40
  "__ZTSN10__cxxabiv129__pointer_to_member_type_infoE"                 @5212   ; magicseg='TEXT32' len=50
  "__ZTSv"                                                             @5213   ; magicseg='TEXT32' len=6
  "__ZTIPv"                                                            @5214   ; magicseg='TEXT32' len=7
  "__ZTSPv"                                                            @5215   ; magicseg='TEXT32' len=7
  "__ZTIPKv"                                                           @5216   ; magicseg='TEXT32' len=8
  "__ZTSPKv"                                                           @5217   ; magicseg='TEXT32' len=8
  "__ZTIb"                                                             @5218   ; magicseg='TEXT32' len=6
  "__ZTSb"                                                             @5219   ; magicseg='TEXT32' len=6
  "__ZTIPb"                                                            @5220   ; magicseg='TEXT32' len=7
  "__ZTSPb"                                                            @5221   ; magicseg='TEXT32' len=7
  "__ZTIPKb"                                                           @5222   ; magicseg='TEXT32' len=8
  "__ZTSPKb"                                                           @5223   ; magicseg='TEXT32' len=8
  "__ZTIw"                                                             @5224   ; magicseg='TEXT32' len=6
  "__ZTSw"                                                             @5225   ; magicseg='TEXT32' len=6
  "__ZTIPw"                                                            @5226   ; magicseg='TEXT32' len=7
  "__ZTSPw"                                                            @5227   ; magicseg='TEXT32' len=7
  "__ZTIPKw"                                                           @5228   ; magicseg='TEXT32' len=8
  "__ZTSPKw"                                                           @5229   ; magicseg='TEXT32' len=8
  "__ZTIc"                                                             @5230   ; magicseg='TEXT32' len=6
  "__ZTSc"                                                             @5231   ; magicseg='TEXT32' len=6
  "__ZTIPc"                                                            @5232   ; magicseg='TEXT32' len=7
  "__ZTSPc"                                                            @5233   ; magicseg='TEXT32' len=7
  "__ZTIPKc"                                                           @5234   ; magicseg='TEXT32' len=8
  "__ZTSPKc"                                                           @5235   ; magicseg='TEXT32' len=8
  "__ZTIa"                                                             @5236   ; magicseg='TEXT32' len=6
  "__ZTSa"                                                             @5237   ; magicseg='TEXT32' len=6
  "__ZTIPa"                                                            @5238   ; magicseg='TEXT32' len=7
  "__ZTSPa"                                                            @5239   ; magicseg='TEXT32' len=7
  "__ZTIPKa"                                                           @5240   ; magicseg='TEXT32' len=8
  "__ZTSPKa"                                                           @5241   ; magicseg='TEXT32' len=8
  "__ZTIh"                                                             @5242   ; magicseg='TEXT32' len=6
  "__ZTSh"                                                             @5243   ; magicseg='TEXT32' len=6
  "__ZTIPh"                                                            @5244   ; magicseg='TEXT32' len=7
  "__ZTSPh"                                                            @5245   ; magicseg='TEXT32' len=7
  "__ZTIPKh"                                                           @5246   ; magicseg='TEXT32' len=8
  "__ZTSPKh"                                                           @5247   ; magicseg='TEXT32' len=8
  "__ZTIs"                                                             @5248   ; magicseg='TEXT32' len=6
  "__ZTSs"                                                             @5249   ; magicseg='TEXT32' len=6
  "__ZTIPs"                                                            @5250   ; magicseg='TEXT32' len=7
  "__ZTSPs"                                                            @5251   ; magicseg='TEXT32' len=7
  "__ZTIPKs"                                                           @5252   ; magicseg='TEXT32' len=8
  "__ZTSPKs"                                                           @5253   ; magicseg='TEXT32' len=8
  "__ZTIt"                                                             @5254   ; magicseg='TEXT32' len=6
  "__ZTSt"                                                             @5255   ; magicseg='TEXT32' len=6
  "__ZTIPt"                                                            @5256   ; magicseg='TEXT32' len=7
  "__ZTSPt"                                                            @5257   ; magicseg='TEXT32' len=7
  "__ZTIPKt"                                                           @5258   ; magicseg='TEXT32' len=8
  "__ZTSPKt"                                                           @5259   ; magicseg='TEXT32' len=8
  "__ZTIi"                                                             @5260   ; magicseg='TEXT32' len=6
  "__ZTSi"                                                             @5261   ; magicseg='TEXT32' len=6
  "__ZTIPi"                                                            @5262   ; magicseg='TEXT32' len=7
  "__ZTSPi"                                                            @5263   ; magicseg='TEXT32' len=7
  "__ZTIPKi"                                                           @5264   ; magicseg='TEXT32' len=8
  "__ZTSPKi"                                                           @5265   ; magicseg='TEXT32' len=8
  "__ZTIj"                                                             @5266   ; magicseg='TEXT32' len=6
  "__ZTSj"                                                             @5267   ; magicseg='TEXT32' len=6
  "__ZTIPj"                                                            @5268   ; magicseg='TEXT32' len=7
  "__ZTSPj"                                                            @5269   ; magicseg='TEXT32' len=7
  "__ZTIPKj"                                                           @5270   ; magicseg='TEXT32' len=8
  "__ZTSPKj"                                                           @5271   ; magicseg='TEXT32' len=8
  "__ZTIl"                                                             @5272   ; magicseg='TEXT32' len=6
  "__ZTSl"                                                             @5273   ; magicseg='TEXT32' len=6
  "__ZTIPl"                                                            @5274   ; magicseg='TEXT32' len=7
  "__ZTSPl"                                                            @5275   ; magicseg='TEXT32' len=7
  "__ZTIPKl"                                                           @5276   ; magicseg='TEXT32' len=8
  "__ZTSPKl"                                                           @5277   ; magicseg='TEXT32' len=8
  "__ZTIm"                                                             @5278   ; magicseg='TEXT32' len=6
  "__ZTSm"                                                             @5279   ; magicseg='TEXT32' len=6
  "__ZTIPm"                                                            @5280   ; magicseg='TEXT32' len=7
  "__ZTSPm"                                                            @5281   ; magicseg='TEXT32' len=7
  "__ZTIPKm"                                                           @5282   ; magicseg='TEXT32' len=8
  "__ZTSPKm"                                                           @5283   ; magicseg='TEXT32' len=8
  "__ZTIx"                                                             @5284   ; magicseg='TEXT32' len=6
  "__ZTSx"                                                             @5285   ; magicseg='TEXT32' len=6
  "__ZTIPx"                                                            @5286   ; magicseg='TEXT32' len=7
  "__ZTSPx"                                                            @5287   ; magicseg='TEXT32' len=7
  "__ZTIPKx"                                                           @5288   ; magicseg='TEXT32' len=8
  "__ZTSPKx"                                                           @5289   ; magicseg='TEXT32' len=8
  "__ZTIy"                                                             @5290   ; magicseg='TEXT32' len=6
  "__ZTSy"                                                             @5291   ; magicseg='TEXT32' len=6
  "__ZTIPy"                                                            @5292   ; magicseg='TEXT32' len=7
  "__ZTSPy"                                                            @5293   ; magicseg='TEXT32' len=7
  "__ZTIPKy"                                                           @5294   ; magicseg='TEXT32' len=8
  "__ZTSPKy"                                                           @5295   ; magicseg='TEXT32' len=8
  "__ZTIf"                                                             @5296   ; magicseg='TEXT32' len=6
  "__ZTSf"                                                             @5297   ; magicseg='TEXT32' len=6
  "__ZTIPf"                                                            @5298   ; magicseg='TEXT32' len=7
  "__ZTSPf"                                                            @5299   ; magicseg='TEXT32' len=7
  "__ZTIPKf"                                                           @5300   ; magicseg='TEXT32' len=8
  "__ZTSPKf"                                                           @5301   ; magicseg='TEXT32' len=8
  "__ZTId"                                                             @5302   ; magicseg='TEXT32' len=6
  "__ZTSd"                                                             @5303   ; magicseg='TEXT32' len=6
  "__ZTIPd"                                                            @5304   ; magicseg='TEXT32' len=7
  "__ZTSPd"                                                            @5305   ; magicseg='TEXT32' len=7
  "__ZTIPKd"                                                           @5306   ; magicseg='TEXT32' len=8
  "__ZTSPKd"                                                           @5307   ; magicseg='TEXT32' len=8
  "__ZTIe"                                                             @5308   ; magicseg='TEXT32' len=6
  "__ZTSe"                                                             @5309   ; magicseg='TEXT32' len=6
  "__ZTIPe"                                                            @5310   ; magicseg='TEXT32' len=7
  "__ZTSPe"                                                            @5311   ; magicseg='TEXT32' len=7
  "__ZTIPKe"                                                           @5312   ; magicseg='TEXT32' len=8
  "__ZTSPKe"                                                           @5313   ; magicseg='TEXT32' len=8
  "___cxa_vec_new"                                                     @5314   ; magicseg='TEXT32' len=14
  "___cxa_vec_new2"                                                    @5315   ; magicseg='TEXT32' len=15
  "___cxa_vec_ctor"                                                    @5316   ; magicseg='TEXT32' len=15
  "___cxa_vec_new3"                                                    @5317   ; magicseg='TEXT32' len=15
  "___cxa_vec_cleanup"                                                 @5318   ; magicseg='TEXT32' len=18
  "___cxa_vec_cctor"                                                   @5319   ; magicseg='TEXT32' len=16
  "___cxa_vec_dtor"                                                    @5320   ; magicseg='TEXT32' len=15
  "___cxa_vec_delete"                                                  @5321   ; magicseg='TEXT32' len=17
  "___cxa_vec_delete2"                                                 @5322   ; magicseg='TEXT32' len=18
  "___cxa_vec_delete3"                                                 @5323   ; magicseg='TEXT32' len=18

